

HI-TECH Software PIC LITE Macro Assembler V9.83 build 10920 
                                                                                               Fri Jun 29 18:28:52 2012

HI-TECH Software Omniscient Code Generator (Lite mode) build 10920
     1  0000                     opt subtitle "HI-TECH Software Omniscient Code Generator (Lite mode) build 10920"
     2                           
     3                           opt pagewidth 120
     4                           
     5                           	opt lm
     6                           
     7                           	processor	16F887
     8                           clrc	macro
     9                           	bcf	3,0
    10  0000                     	endm
    11                           clrz	macro
    12                           	bcf	3,2
    13  0000                     	endm
    14                           setc	macro
    15                           	bsf	3,0
    16  0000                     	endm
    17                           setz	macro
    18                           	bsf	3,2
    19  0000                     	endm
    20                           skipc	macro
    21                           	btfss	3,0
    22  0000                     	endm
    23                           skipz	macro
    24                           	btfss	3,2
    25  0000                     	endm
    26                           skipnc	macro
    27                           	btfsc	3,0
    28  0000                     	endm
    29                           skipnz	macro
    30                           	btfsc	3,2
    31  0000                     	endm
    32  0000                     indf	equ	0
    33  0000                     indf0	equ	0
    34  0002                     pc	equ	2
    35  0002                     pcl	equ	2
    36  0003                     status	equ	3
    37  0004                     fsr	equ	4
    38  0004                     fsr0	equ	4
    39  0001                     c	equ	1
    40  0000                     z	equ	0
    41  000A                     pclath	equ	10
    42                           # 75 "Main.c"
    43                           	psect config,class=CONFIG,delta=2 ;#
    44                           # 75 "Main.c"
    45  2007  ECF2               	dw 0xFFFA & 0xFFF7 & 0xFFFF & 0xFCFF & 0xFFFF & 0xEFFF ;#
    46                           	FNCALL	_main,_initIO
    47                           	FNCALL	_main,_pwm_init
    48                           	FNCALL	_main,_motorspeed
    49                           	FNCALL	_main,_lcdinit
    50                           	FNCALL	_main,_LSA08_Init
    51                           	FNCALL	_main,_PID_MENU
    52                           	FNCALL	_main,_lcd_clr
    53                           	FNCALL	_main,_lcd_goto
    54                           	FNCALL	_main,_send_string
    55                           	FNCALL	_main,_LSA08_GetPosition
    56                           	FNCALL	_main,_PID_UPDATE
    57                           	FNCALL	_main,___awtoft
    58                           	FNCALL	_main,___ftmul
    59                           	FNCALL	_main,___ftadd
    60                           	FNCALL	_main,___fttol
    61                           	FNCALL	_PID_MENU,_lcd_goto
    62                           	FNCALL	_PID_MENU,_send_string
    63                           	FNCALL	_PID_MENU,___fttol
    64                           	FNCALL	_PID_MENU,_lcd_num
    65                           	FNCALL	_PID_MENU,_send_char
    66                           	FNCALL	_PID_MENU,___lbtoft
    67                           	FNCALL	_PID_MENU,___ftneg
    68                           	FNCALL	_PID_MENU,___ftadd
    69                           	FNCALL	_PID_MENU,___ftmul
    70                           	FNCALL	_PID_MENU,___ftge
    71                           	FNCALL	_PID_MENU,___ftsub
    72                           	FNCALL	_LSA08_Init,_UART_INIT
    73                           	FNCALL	_LSA08_Init,_LSA08_ClearJunction
    74                           	FNCALL	_LSA08_Init,_LSA08_UARTMode
    75                           	FNCALL	_lcd_num,___lwmod
    76                           	FNCALL	_lcd_num,___lwdiv
    77                           	FNCALL	_lcd_num,_send_string
    78                           	FNCALL	_lcd_num,_send_char
    79                           	FNCALL	_lcdinit,_send_config
    80                           	FNCALL	_lcdinit,_lcd_clr
    81                           	FNCALL	_LSA08_UARTMode,_SEND_PACKET
    82                           	FNCALL	_LSA08_ClearJunction,_SEND_PACKET
    83                           	FNCALL	___ftsub,___ftadd
    84                           	FNCALL	_send_string,_send_char
    85                           	FNCALL	_lcd_goto,_send_config
    86                           	FNCALL	_lcd_clr,_send_config
    87                           	FNCALL	_lcd_clr,_delay
    88                           	FNCALL	_LSA08_GetPosition,_UART_REC
    89                           	FNCALL	_LSA08_GetPosition,_UART_DUMP
    90                           	FNCALL	_SEND_PACKET,_UART_SEND
    91                           	FNCALL	_SEND_PACKET,_UART_RESPONSE
    92                           	FNCALL	___awtoft,___ftpack
    93                           	FNCALL	___lbtoft,___ftpack
    94                           	FNCALL	___ftmul,___ftpack
    95                           	FNCALL	___ftadd,___ftpack
    96                           	FNCALL	_send_config,_delay
    97                           	FNCALL	_send_char,_delay
    98                           	FNCALL	_motorspeed,_set_pwmr
    99                           	FNCALL	_motorspeed,_set_pwml
   100                           	FNCALL	_UART_DUMP,_UART_REC
   101                           	FNCALL	_UART_RESPONSE,_UART_REC
   102                           	FNROOT	_main
   103                           	global	_LSA08_ADD
   104                           	global	_Kd
   105                           	global	_Ki
   106                           	global	_Kp
   107                           	global	_max
   108                           psect	idataBANK0,class=CODE,space=0,delta=2
   109                           global __pidataBANK0
   110  0003                     __pidataBANK0:
   111                           	file	"Main.c"
   112                           	line	18
   113                           
   114                           ;initializer for _LSA08_ADD
   115  0003  3401               	retlw	01h
   116                           psect	idataBANK1,class=CODE,space=0,delta=2
   117                           global __pidataBANK1
   118  0866                     __pidataBANK1:
   119                           	line	92
   120                           
   121                           ;initializer for _Kd
   122  0866  3400               	retlw	0x0
   123  0867  34A0               	retlw	0xa0
   124  0868  3441               	retlw	0x41
   125                           
   126                           
   127                           ;initializer for _Ki
   128  0869  34D7               	retlw	0xd7
   129  086A  34A3               	retlw	0xa3
   130  086B  343D               	retlw	0x3d
   131                           
   132                           
   133                           ;initializer for _Kp
   134  086C  3466               	retlw	0x66
   135  086D  34B6               	retlw	0xb6
   136  086E  3440               	retlw	0x40
   137                           
   138                           	line	93
   139                           
   140                           ;initializer for _max
   141  086F  3437               	retlw	037h
   142  0870  3400               	retlw	0
   143                           
   144                           	global	PID_UPDATE@proportional0
   145                           	global	PID_UPDATE@proportional1
   146                           	global	PID_UPDATE@proportional2
   147                           	global	_derivative
   148                           	global	_integral
   149                           	global	_last_proportional
   150                           	global	_m_diff
   151                           	global	_proportional
   152                           	global	_rec
   153                           	global	_ERR_FLAG
   154                           	global	_mode
   155                           	global	_CCPR1L
   156  0015                     _CCPR1L	set	21
   157                           	global	_CCPR2L
   158  001B                     _CCPR2L	set	27
   159                           	global	_PORTB
   160  0006                     _PORTB	set	6
   161                           	global	_PORTC
   162  0007                     _PORTC	set	7
   163                           	global	_PORTCbits
   164  0007                     _PORTCbits	set	7
   165                           	global	_PORTD
   166  0008                     _PORTD	set	8
   167                           	global	_PORTE
   168  0009                     _PORTE	set	9
   169                           	global	_RCREG
   170  001A                     _RCREG	set	26
   171                           	global	_RCSTAbits
   172  0018                     _RCSTAbits	set	24
   173                           	global	_TXREG
   174  0019                     _TXREG	set	25
   175                           	global	_CARRY
   176  0018                     _CARRY	set	24
   177                           	global	_CCP1M0
   178  00B8                     _CCP1M0	set	184
   179                           	global	_CCP1M1
   180  00B9                     _CCP1M1	set	185
   181                           	global	_CCP1M2
   182  00BA                     _CCP1M2	set	186
   183                           	global	_CCP1M3
   184  00BB                     _CCP1M3	set	187
   185                           	global	_CCP2M0
   186  00E8                     _CCP2M0	set	232
   187                           	global	_CCP2M1
   188  00E9                     _CCP2M1	set	233
   189                           	global	_CCP2M2
   190  00EA                     _CCP2M2	set	234
   191                           	global	_CCP2M3
   192  00EB                     _CCP2M3	set	235
   193                           	global	_CCP2X
   194  00ED                     _CCP2X	set	237
   195                           	global	_CCP2Y
   196  00EC                     _CCP2Y	set	236
   197                           	global	_DC1B0
   198  00BC                     _DC1B0	set	188
   199                           	global	_DC1B1
   200  00BD                     _DC1B1	set	189
   201                           	global	_FERR
   202  00C2                     _FERR	set	194
   203                           	global	_GIE
   204  005F                     _GIE	set	95
   205                           	global	_P1M0
   206  00BE                     _P1M0	set	190
   207                           	global	_P1M1
   208  00BF                     _P1M1	set	191
   209                           	global	_RB0
   210  0030                     _RB0	set	48
   211                           	global	_RB1
   212  0031                     _RB1	set	49
   213                           	global	_RB4
   214  0034                     _RB4	set	52
   215                           	global	_RB5
   216  0035                     _RB5	set	53
   217                           	global	_RB6
   218  0036                     _RB6	set	54
   219                           	global	_RB7
   220  0037                     _RB7	set	55
   221                           	global	_RC0
   222  0038                     _RC0	set	56
   223                           	global	_RC3
   224  003B                     _RC3	set	59
   225                           	global	_RCIF
   226  0065                     _RCIF	set	101
   227                           	global	_T2CKPS0
   228  0090                     _T2CKPS0	set	144
   229                           	global	_T2CKPS1
   230  0091                     _T2CKPS1	set	145
   231                           	global	_TMR2ON
   232  0092                     _TMR2ON	set	146
   233                           	global	_PR2
   234  0092                     _PR2	set	146
   235                           	global	_SPBRG
   236  0099                     _SPBRG	set	153
   237                           	global	_SPBRGH
   238  009A                     _SPBRGH	set	154
   239                           	global	_TRISA
   240  0085                     _TRISA	set	133
   241                           	global	_TRISB
   242  0086                     _TRISB	set	134
   243                           	global	_TRISC
   244  0087                     _TRISC	set	135
   245                           	global	_TRISCbits
   246  0087                     _TRISCbits	set	135
   247                           	global	_TRISD
   248  0088                     _TRISD	set	136
   249                           	global	_TRISE
   250  0089                     _TRISE	set	137
   251                           	global	_TXSTAbits
   252  0098                     _TXSTAbits	set	152
   253                           	global	_TRISB4
   254  0434                     _TRISB4	set	1076
   255                           	global	_TRISB5
   256  0435                     _TRISB5	set	1077
   257                           	global	_TRMT
   258  04C1                     _TRMT	set	1217
   259                           	global	_EEADR
   260  010D                     _EEADR	set	269
   261                           	global	_EEDATA
   262  010C                     _EEDATA	set	268
   263                           	global	_ANSEL
   264  0188                     _ANSEL	set	392
   265                           	global	_ANSELH
   266  0189                     _ANSELH	set	393
   267                           	global	_BAUDCTLbits
   268  0187                     _BAUDCTLbits	set	391
   269                           	global	_EECON1
   270  018C                     _EECON1	set	396
   271                           	global	_EECON2
   272  018D                     _EECON2	set	397
   273                           	global	_RD
   274  0C60                     _RD	set	3168
   275                           	global	_WR
   276  0C61                     _WR	set	3169
   277                           	global	_WREN
   278  0C62                     _WREN	set	3170
   279                           psect	strings,class=STRING,delta=2
   280                           global __pstrings
   281  0800                     __pstrings:
   282                           ;	global	stringdir,stringtab,__stringbase
   283  0800                     stringtab:
   284                           ;	String table - string pointers are 1 byte each
   285  0800  1BFF               	btfsc	(btemp+1),7
   286  0801  280A               	ljmp	stringcode
   287  0802  1383               	bcf	status,7
   288  0803  187F               	btfsc	(btemp+1),0
   289  0804  1783               	bsf	status,7
   290  0805  0800               	movf	indf,w
   291  0806  0A84               	incf fsr
   292  0807  1903               skipnz
   293  0808  0AFF               incf btemp+1
   294  0809  0008               	return
   295  080A                     stringcode:stringdir:
      + 080A                     stringdir:	
   296  080A  3008               movlw high(stringdir)
   297  080B  008A               movwf pclath
   298  080C  0804               movf fsr,w
   299  080D  0A84               incf fsr
   300  080E  0782               	addwf pc
   301  080F                     __stringbase:
   302  080F  3400               	retlw	0
   303                           psect	strings
   304                           	
   305  0810                     STR_4:	
   306  0810  344B               	retlw	75	;'K'
   307  0811  3470               	retlw	112	;'p'
   308  0812  3420               	retlw	32	;' '
   309  0813  3420               	retlw	32	;' '
   310  0814  3420               	retlw	32	;' '
   311  0815  344B               	retlw	75	;'K'
   312  0816  3469               	retlw	105	;'i'
   313  0817  3420               	retlw	32	;' '
   314  0818  3420               	retlw	32	;' '
   315  0819  3420               	retlw	32	;' '
   316  081A  344B               	retlw	75	;'K'
   317  081B  3464               	retlw	100	;'d'
   318  081C  3420               	retlw	32	;' '
   319  081D  3420               	retlw	32	;' '
   320  081E  3400               	retlw	0
   321                           psect	strings
   322                           	
   323  081F                     STR_3:	
   324  081F  344C               	retlw	76	;'L'
   325  0820  3469               	retlw	105	;'i'
   326  0821  346E               	retlw	110	;'n'
   327  0822  3465               	retlw	101	;'e'
   328  0823  3420               	retlw	32	;' '
   329  0824  3446               	retlw	70	;'F'
   330  0825  346F               	retlw	111	;'o'
   331  0826  346C               	retlw	108	;'l'
   332  0827  346C               	retlw	108	;'l'
   333  0828  346F               	retlw	111	;'o'
   334  0829  3477               	retlw	119	;'w'
   335  082A  3400               	retlw	0
   336                           psect	strings
   337                           	
   338  082B                     STR_1:	
   339  082B  3450               	retlw	80	;'P'
   340  082C  3472               	retlw	114	;'r'
   341  082D  3465               	retlw	101	;'e'
   342  082E  3473               	retlw	115	;'s'
   343  082F  3473               	retlw	115	;'s'
   344  0830  3420               	retlw	32	;' '
   345  0831  3453               	retlw	83	;'S'
   346  0832  3457               	retlw	87	;'W'
   347  0833  3431               	retlw	49	;'1'
   348  0834  3400               	retlw	0
   349                           psect	strings
   350                           	
   351  0835                     STR_2:	
   352  0835  344C               	retlw	76	;'L'
   353  0836  3453               	retlw	83	;'S'
   354  0837  3441               	retlw	65	;'A'
   355  0838  3430               	retlw	48	;'0'
   356  0839  3438               	retlw	56	;'8'
   357  083A  3420               	retlw	32	;' '
   358  083B  3400               	retlw	0
   359                           psect	strings
   360                           	
   361  083C                     STR_5:	
   362  083C  345F               	retlw	95	;'_'
   363  083D  345F               	retlw	95	;'_'
   364  083E  3400               	retlw	0
   365                           psect	strings
   366  083C                     STR_6	equ	STR_5+0
   367  083C                     STR_7	equ	STR_5+0
   368                           	file	"C:\DOCUME~1\inghui\LOCALS~1\Temp\s18s."
   369                           	line	#
   370                           psect cinit,class=CODE,delta=2
   371                           global start_initialization
   372  09A1                     start_initialization:
   373                           
   374                           psect	dataBANK0,class=BANK0,space=1
   375                           global __pdataBANK0
   376  006F                     __pdataBANK0:
   377                           	file	"Main.c"
   378                           	line	18
   379  006F                     _LSA08_ADD:
   380  006F                            ds      1
   381                           
   382                           psect	bssBANK1,class=BANK1,space=1
   383                           global __pbssBANK1
   384  00A0                     __pbssBANK1:
   385  00A0                     PID_UPDATE@proportional0:
   386  00A0                            ds      2
   387                           
   388  00A2                     PID_UPDATE@proportional1:
   389  00A2                            ds      2
   390                           
   391  00A4                     PID_UPDATE@proportional2:
   392  00A4                            ds      2
   393                           
   394  00A6                     _derivative:
   395  00A6                            ds      2
   396                           
   397  00A8                     _integral:
   398  00A8                            ds      2
   399                           
   400  00AA                     _last_proportional:
   401  00AA                            ds      2
   402                           
   403  00AC                     _m_diff:
   404  00AC                            ds      2
   405                           
   406  00AE                     _proportional:
   407  00AE                            ds      2
   408                           
   409  00B0                     _rec:
   410  00B0                            ds      2
   411                           
   412  00B2                     _ERR_FLAG:
   413  00B2                            ds      1
   414                           
   415  00B3                     _mode:
   416  00B3                            ds      1
   417                           
   418                           psect	dataBANK1,class=BANK1,space=1
   419                           global __pdataBANK1
   420  00C2                     __pdataBANK1:
   421                           	file	"Main.c"
   422                           	line	92
   423  00C2                     _Kd:
   424  00C2                            ds      3
   425                           
   426                           psect	dataBANK1
   427                           	file	"Main.c"
   428  00C5                     _Ki:
   429  00C5                            ds      3
   430                           
   431                           psect	dataBANK1
   432                           	file	"Main.c"
   433  00C8                     _Kp:
   434  00C8                            ds      3
   435                           
   436                           psect	dataBANK1
   437                           	file	"Main.c"
   438                           	line	93
   439  00CB                     _max:
   440  00CB                            ds      2
   441                           
   442                           psect clrtext,class=CODE,delta=2
   443                           global clear_ram
   444                           ;	Called with FSR containing the base address, and
   445                           ;	W with the last address+1
   446  085E                     clear_ram:
   447  085E  0064               	clrwdt			;clear the watchdog before getting into this loop
   448  085F                     clrloop:
   449  085F  0180               	clrf	indf		;clear RAM location pointed to by FSR
   450  0860  0A84               	incf	fsr,f		;increment pointer
   451  0861  0604               	xorwf	fsr,w		;XOR with final address
   452  0862  1903               	btfsc	status,2	;have we reached the end yet?
   453  0863  3400               	retlw	0		;all done for this memory range, return
   454  0864  0604               	xorwf	fsr,w		;XOR again to restore value
   455  0865  285F               	goto	clrloop		;do the next byte
   456                           
   457                           ; Clear objects allocated to BANK1
   458                           psect cinit,class=CODE,delta=2
   459  09A1  1383               	bcf	status, 7	;select IRP bank0
   460  09A2  30A0               	movlw	low(__pbssBANK1)
   461  09A3  0084               	movwf	fsr
   462  09A4  30B4               	movlw	low((__pbssBANK1)+014h)
   463  09A5  120A  158A  205E   	fcall	clear_ram
              120A  158A         
   464                           global btemp
   465                           psect inittext,class=CODE,delta=2
   466                           global init_fetch,btemp
   467                           ;	Called with low address in FSR and high address in W
   468  08BE                     init_fetch:
   469  08BE  087E               	movf btemp,w
   470  08BF  008A               	movwf pclath
   471  08C0  087F               	movf btemp+1,w
   472  08C1  0082               	movwf pc
   473                           global init_ram
   474                           ;Called with:
   475                           ;	high address of idata address in btemp 
   476                           ;	low address of idata address in btemp+1 
   477                           ;	low address of data in FSR
   478                           ;	high address + 1 of data in btemp-1
   479  08C2                     init_ram:
   480  08C2  120A  158A  20BE   	fcall init_fetch
              120A  158A         
   481  08C7  0080               	movwf indf,f
   482  08C8  0A84               	incf fsr,f
   483  08C9  0804               	movf fsr,w
   484  08CA  067D               	xorwf btemp-1,w
   485  08CB  1903               	btfsc status,2
   486  08CC  3400               	retlw 0
   487  08CD  0AFF               	incf btemp+1,f
   488  08CE  1903               	btfsc status,2
   489  08CF  0AFE               	incf btemp,f
   490  08D0  28C2               	goto init_ram
   491                           ; Initialize objects allocated to BANK1
   492                           psect cinit,class=CODE,delta=2
   493                           global init_ram, __pidataBANK1
   494  09AA  30CD               	movlw low(__pdataBANK1+11)
   495  09AB  00FD               	movwf btemp-1,f
   496  09AC  3008               	movlw high(__pidataBANK1)
   497  09AD  00FE               	movwf btemp,f
   498  09AE  3066               	movlw low(__pidataBANK1)
   499  09AF  00FF               	movwf btemp+1,f
   500  09B0  30C2               	movlw low(__pdataBANK1)
   501  09B1  0084               	movwf fsr,f
   502  09B2  120A  158A  20C2   	fcall init_ram
              120A  158A         
   503                           ; Initialize objects allocated to BANK0
   504                           	global __pidataBANK0
   505                           psect cinit,class=CODE,delta=2
   506  09B7  120A  118A  2003   	fcall	__pidataBANK0+0		;fetch initializer
              120A  158A         
   507  09BC  00EF               	movwf	__pdataBANK0+0&07fh		
   508                           psect cinit,class=CODE,delta=2
   509                           global end_of_initialization
   510                           
   511                           ;End of C runtime variable initialization code
   512                           
   513  09BD                     end_of_initialization:
   514  09BD  0183               clrf status
   515  09BE  120A  118A  292D   ljmp _main	;jump to C main() function
   516                           psect	cstackBANK1,class=BANK1,space=1
   517                           global __pcstackBANK1
   518  00B4                     __pcstackBANK1:
   519                           	global	PID_MENU@count
   520  00B4                     PID_MENU@count:	; 4 bytes @ 0x0
   521  00B4                     	ds	4
   522                           	global	PID_MENU@kval
   523  00B8                     PID_MENU@kval:	; 1 bytes @ 0x4
   524  00B8                     	ds	1
   525                           	global	??_main
   526  00B9                     ??_main:	; 0 bytes @ 0x5
   527  00B9                     	ds	3
   528                           	global	main@junctioncount
   529  00BC                     main@junctioncount:	; 1 bytes @ 0x8
   530  00BC                     	ds	1
   531                           	global	main@pos
   532  00BD                     main@pos:	; 1 bytes @ 0x9
   533  00BD                     	ds	1
   534                           	global	main@leftspeed
   535  00BE                     main@leftspeed:	; 2 bytes @ 0xA
   536  00BE                     	ds	2
   537                           	global	main@rightspeed
   538  00C0                     main@rightspeed:	; 2 bytes @ 0xC
   539  00C0                     	ds	2
   540                           psect	cstackCOMMON,class=COMMON,space=1
   541                           global __pcstackCOMMON
   542  0070                     __pcstackCOMMON:
   543                           	global	??_UART_REC
   544  0070                     ??_UART_REC:	; 0 bytes @ 0x0
   545                           	global	?_UART_SEND
   546  0070                     ?_UART_SEND:	; 0 bytes @ 0x0
   547                           	global	??_UART_SEND
   548  0070                     ??_UART_SEND:	; 0 bytes @ 0x0
   549                           	global	?_UART_INIT
   550  0070                     ?_UART_INIT:	; 0 bytes @ 0x0
   551                           	global	??_UART_INIT
   552  0070                     ??_UART_INIT:	; 0 bytes @ 0x0
   553                           	global	?_UART_DUMP
   554  0070                     ?_UART_DUMP:	; 0 bytes @ 0x0
   555                           	global	?_initIO
   556  0070                     ?_initIO:	; 0 bytes @ 0x0
   557                           	global	??_initIO
   558  0070                     ??_initIO:	; 0 bytes @ 0x0
   559                           	global	?_pwm_init
   560  0070                     ?_pwm_init:	; 0 bytes @ 0x0
   561                           	global	??_pwm_init
   562  0070                     ??_pwm_init:	; 0 bytes @ 0x0
   563                           	global	?_lcdinit
   564  0070                     ?_lcdinit:	; 0 bytes @ 0x0
   565                           	global	?_PID_MENU
   566  0070                     ?_PID_MENU:	; 0 bytes @ 0x0
   567                           	global	?_lcd_clr
   568  0070                     ?_lcd_clr:	; 0 bytes @ 0x0
   569                           	global	?_lcd_goto
   570  0070                     ?_lcd_goto:	; 0 bytes @ 0x0
   571                           	global	?_PID_UPDATE
   572  0070                     ?_PID_UPDATE:	; 0 bytes @ 0x0
   573                           	global	??_PID_UPDATE
   574  0070                     ??_PID_UPDATE:	; 0 bytes @ 0x0
   575                           	global	?_send_char
   576  0070                     ?_send_char:	; 0 bytes @ 0x0
   577                           	global	?_send_config
   578  0070                     ?_send_config:	; 0 bytes @ 0x0
   579                           	global	?_main
   580  0070                     ?_main:	; 0 bytes @ 0x0
   581                           	global	?_set_pwmr
   582  0070                     ?_set_pwmr:	; 0 bytes @ 0x0
   583                           	global	??_set_pwmr
   584  0070                     ??_set_pwmr:	; 0 bytes @ 0x0
   585                           	global	?_set_pwml
   586  0070                     ?_set_pwml:	; 0 bytes @ 0x0
   587                           	global	??_set_pwml
   588  0070                     ??_set_pwml:	; 0 bytes @ 0x0
   589                           	global	?_delay
   590  0070                     ?_delay:	; 0 bytes @ 0x0
   591                           	global	?_UART_REC
   592  0070                     ?_UART_REC:	; 1 bytes @ 0x0
   593                           	global	?_LSA08_ClearJunction
   594  0070                     ?_LSA08_ClearJunction:	; 1 bytes @ 0x0
   595                           	global	?_LSA08_UARTMode
   596  0070                     ?_LSA08_UARTMode:	; 1 bytes @ 0x0
   597                           	global	?_UART_RESPONSE
   598  0070                     ?_UART_RESPONSE:	; 1 bytes @ 0x0
   599                           	global	?_LSA08_Init
   600  0070                     ?_LSA08_Init:	; 1 bytes @ 0x0
   601                           	global	?_LSA08_GetPosition
   602  0070                     ?_LSA08_GetPosition:	; 1 bytes @ 0x0
   603                           	global	?___lwdiv
   604  0070                     ?___lwdiv:	; 2 bytes @ 0x0
   605                           	global	?___lwmod
   606  0070                     ?___lwmod:	; 2 bytes @ 0x0
   607                           	global	?___ftpack
   608  0070                     ?___ftpack:	; 3 bytes @ 0x0
   609                           	global	set_pwmr@uc_duty_cycle
   610  0070                     set_pwmr@uc_duty_cycle:	; 1 bytes @ 0x0
   611                           	global	set_pwml@uc_duty_cycle
   612  0070                     set_pwml@uc_duty_cycle:	; 1 bytes @ 0x0
   613                           	global	UART_SEND@data
   614  0070                     UART_SEND@data:	; 1 bytes @ 0x0
   615                           	global	___lwdiv@divisor
   616  0070                     ___lwdiv@divisor:	; 2 bytes @ 0x0
   617                           	global	___lwmod@divisor
   618  0070                     ___lwmod@divisor:	; 2 bytes @ 0x0
   619                           	global	___ftpack@arg
   620  0070                     ___ftpack@arg:	; 3 bytes @ 0x0
   621                           	global	delay@data
   622  0070                     delay@data:	; 4 bytes @ 0x0
   623  0070                     	ds	1
   624                           	global	?_motorspeed
   625  0071                     ?_motorspeed:	; 0 bytes @ 0x1
   626                           	global	motorspeed@uc_right_motor_speed
   627  0071                     motorspeed@uc_right_motor_speed:	; 1 bytes @ 0x1
   628                           	global	UART_REC@waitcount
   629  0071                     UART_REC@waitcount:	; 4 bytes @ 0x1
   630  0071                     	ds	1
   631                           	global	??_motorspeed
   632  0072                     ??_motorspeed:	; 0 bytes @ 0x2
   633                           	global	PID_UPDATE@position
   634  0072                     PID_UPDATE@position:	; 1 bytes @ 0x2
   635                           	global	motorspeed@uc_left_motor_speed
   636  0072                     motorspeed@uc_left_motor_speed:	; 1 bytes @ 0x2
   637                           	global	___lwdiv@dividend
   638  0072                     ___lwdiv@dividend:	; 2 bytes @ 0x2
   639                           	global	___lwmod@dividend
   640  0072                     ___lwmod@dividend:	; 2 bytes @ 0x2
   641  0072                     	ds	1
   642                           	global	___ftpack@exp
   643  0073                     ___ftpack@exp:	; 1 bytes @ 0x3
   644  0073                     	ds	1
   645                           	global	??_delay
   646  0074                     ??_delay:	; 0 bytes @ 0x4
   647                           	global	??___lwdiv
   648  0074                     ??___lwdiv:	; 0 bytes @ 0x4
   649                           	global	??___lwmod
   650  0074                     ??___lwmod:	; 0 bytes @ 0x4
   651                           	global	___ftpack@sign
   652  0074                     ___ftpack@sign:	; 1 bytes @ 0x4
   653  0074                     	ds	1
   654                           	global	??___ftpack
   655  0075                     ??___ftpack:	; 0 bytes @ 0x5
   656                           	global	UART_REC@rec_data
   657  0075                     UART_REC@rec_data:	; 1 bytes @ 0x5
   658                           	global	___lwmod@counter
   659  0075                     ___lwmod@counter:	; 1 bytes @ 0x5
   660                           	global	___lwdiv@quotient
   661  0075                     ___lwdiv@quotient:	; 2 bytes @ 0x5
   662  0075                     	ds	1
   663                           	global	??_UART_DUMP
   664  0076                     ??_UART_DUMP:	; 0 bytes @ 0x6
   665                           	global	??_UART_RESPONSE
   666  0076                     ??_UART_RESPONSE:	; 0 bytes @ 0x6
   667  0076                     	ds	1
   668                           	global	UART_RESPONSE@rec_bytes
   669  0077                     UART_RESPONSE@rec_bytes:	; 1 bytes @ 0x7
   670                           	global	UART_DUMP@dump
   671  0077                     UART_DUMP@dump:	; 1 bytes @ 0x7
   672                           	global	___lwdiv@counter
   673  0077                     ___lwdiv@counter:	; 1 bytes @ 0x7
   674  0077                     	ds	1
   675                           	global	??_send_char
   676  0078                     ??_send_char:	; 0 bytes @ 0x8
   677                           	global	??_send_config
   678  0078                     ??_send_config:	; 0 bytes @ 0x8
   679                           	global	??_LSA08_GetPosition
   680  0078                     ??_LSA08_GetPosition:	; 0 bytes @ 0x8
   681                           	global	?_SEND_PACKET
   682  0078                     ?_SEND_PACKET:	; 1 bytes @ 0x8
   683                           	global	?___ftneg
   684  0078                     ?___ftneg:	; 3 bytes @ 0x8
   685                           	global	SEND_PACKET@command
   686  0078                     SEND_PACKET@command:	; 1 bytes @ 0x8
   687                           	global	send_config@data
   688  0078                     send_config@data:	; 1 bytes @ 0x8
   689                           	global	send_char@data
   690  0078                     send_char@data:	; 1 bytes @ 0x8
   691                           	global	___ftneg@f1
   692  0078                     ___ftneg@f1:	; 3 bytes @ 0x8
   693  0078                     	ds	1
   694                           	global	??_lcdinit
   695  0079                     ??_lcdinit:	; 0 bytes @ 0x9
   696                           	global	??_lcd_clr
   697  0079                     ??_lcd_clr:	; 0 bytes @ 0x9
   698                           	global	??_lcd_goto
   699  0079                     ??_lcd_goto:	; 0 bytes @ 0x9
   700                           	global	?_send_string
   701  0079                     ?_send_string:	; 0 bytes @ 0x9
   702                           	global	SEND_PACKET@value
   703  0079                     SEND_PACKET@value:	; 1 bytes @ 0x9
   704                           	global	LSA08_GetPosition@post
   705  0079                     LSA08_GetPosition@post:	; 1 bytes @ 0x9
   706                           	global	send_string@s
   707  0079                     send_string@s:	; 2 bytes @ 0x9
   708  0079                     	ds	1
   709                           	global	SEND_PACKET@com_dat
   710  007A                     SEND_PACKET@com_dat:	; 1 bytes @ 0xA
   711                           	global	LSA08_GetPosition@linepost
   712  007A                     LSA08_GetPosition@linepost:	; 1 bytes @ 0xA
   713                           	global	lcd_goto@data
   714  007A                     lcd_goto@data:	; 1 bytes @ 0xA
   715  007A                     	ds	1
   716                           	global	??_send_string
   717  007B                     ??_send_string:	; 0 bytes @ 0xB
   718                           	global	??_SEND_PACKET
   719  007B                     ??_SEND_PACKET:	; 0 bytes @ 0xB
   720                           	global	??___awtoft
   721  007B                     ??___awtoft:	; 0 bytes @ 0xB
   722                           	global	??___ftneg
   723  007B                     ??___ftneg:	; 0 bytes @ 0xB
   724                           	global	___lbtoft@c
   725  007B                     ___lbtoft@c:	; 1 bytes @ 0xB
   726  007B                     	ds	1
   727                           	global	SEND_PACKET@add
   728  007C                     SEND_PACKET@add:	; 1 bytes @ 0xC
   729  007C                     	ds	1
   730                           	global	LSA08_UARTMode@mode
   731  007D                     LSA08_UARTMode@mode:	; 1 bytes @ 0xD
   732                           	global	___awtoft@sign
   733  007D                     ___awtoft@sign:	; 1 bytes @ 0xD
   734  007D                     	ds	1
   735                           	global	??_LSA08_Init
   736  007E                     ??_LSA08_Init:	; 0 bytes @ 0xE
   737                           	global	??___ftsub
   738  007E                     ??___ftsub:	; 0 bytes @ 0xE
   739                           psect	cstackBANK0,class=BANK0,space=1
   740                           global __pcstackBANK0
   741  0020                     __pcstackBANK0:
   742                           	global	??_LSA08_ClearJunction
   743  0020                     ??_LSA08_ClearJunction:	; 0 bytes @ 0x0
   744                           	global	??_LSA08_UARTMode
   745  0020                     ??_LSA08_UARTMode:	; 0 bytes @ 0x0
   746                           	global	?___ftge
   747  0020                     ?___ftge:	; 1 bit 
   748                           	global	?___fttol
   749  0020                     ?___fttol:	; 4 bytes @ 0x0
   750                           	global	___fttol@f1
   751  0020                     ___fttol@f1:	; 3 bytes @ 0x0
   752                           	global	___ftge@ff1
   753  0020                     ___ftge@ff1:	; 3 bytes @ 0x0
   754  0020                     	ds	3
   755                           	global	___ftge@ff2
   756  0023                     ___ftge@ff2:	; 3 bytes @ 0x3
   757  0023                     	ds	1
   758                           	global	??___fttol
   759  0024                     ??___fttol:	; 0 bytes @ 0x4
   760  0024                     	ds	2
   761                           	global	??___ftge
   762  0026                     ??___ftge:	; 0 bytes @ 0x6
   763  0026                     	ds	2
   764                           	global	___fttol@sign1
   765  0028                     ___fttol@sign1:	; 1 bytes @ 0x8
   766  0028                     	ds	1
   767                           	global	___fttol@lval
   768  0029                     ___fttol@lval:	; 4 bytes @ 0x9
   769  0029                     	ds	4
   770                           	global	___fttol@exp1
   771  002D                     ___fttol@exp1:	; 1 bytes @ 0xD
   772  002D                     	ds	1
   773                           	global	?___lbtoft
   774  002E                     ?___lbtoft:	; 3 bytes @ 0xE
   775                           	global	?___awtoft
   776  002E                     ?___awtoft:	; 3 bytes @ 0xE
   777                           	global	___awtoft@c
   778  002E                     ___awtoft@c:	; 2 bytes @ 0xE
   779  002E                     	ds	3
   780                           	global	??___lbtoft
   781  0031                     ??___lbtoft:	; 0 bytes @ 0x11
   782  0031                     	ds	4
   783                           	global	?___ftmul
   784  0035                     ?___ftmul:	; 3 bytes @ 0x15
   785                           	global	___ftmul@f1
   786  0035                     ___ftmul@f1:	; 3 bytes @ 0x15
   787  0035                     	ds	3
   788                           	global	___ftmul@f2
   789  0038                     ___ftmul@f2:	; 3 bytes @ 0x18
   790  0038                     	ds	3
   791                           	global	??___ftmul
   792  003B                     ??___ftmul:	; 0 bytes @ 0x1B
   793  003B                     	ds	4
   794                           	global	___ftmul@exp
   795  003F                     ___ftmul@exp:	; 1 bytes @ 0x1F
   796  003F                     	ds	1
   797                           	global	___ftmul@f3_as_product
   798  0040                     ___ftmul@f3_as_product:	; 3 bytes @ 0x20
   799  0040                     	ds	3
   800                           	global	___ftmul@cntr
   801  0043                     ___ftmul@cntr:	; 1 bytes @ 0x23
   802  0043                     	ds	1
   803                           	global	___ftmul@sign
   804  0044                     ___ftmul@sign:	; 1 bytes @ 0x24
   805  0044                     	ds	1
   806                           	global	?___ftadd
   807  0045                     ?___ftadd:	; 3 bytes @ 0x25
   808                           	global	___ftadd@f1
   809  0045                     ___ftadd@f1:	; 3 bytes @ 0x25
   810  0045                     	ds	3
   811                           	global	___ftadd@f2
   812  0048                     ___ftadd@f2:	; 3 bytes @ 0x28
   813  0048                     	ds	3
   814                           	global	??___ftadd
   815  004B                     ??___ftadd:	; 0 bytes @ 0x2B
   816  004B                     	ds	4
   817                           	global	___ftadd@sign
   818  004F                     ___ftadd@sign:	; 1 bytes @ 0x2F
   819  004F                     	ds	1
   820                           	global	___ftadd@exp2
   821  0050                     ___ftadd@exp2:	; 1 bytes @ 0x30
   822  0050                     	ds	1
   823                           	global	___ftadd@exp1
   824  0051                     ___ftadd@exp1:	; 1 bytes @ 0x31
   825  0051                     	ds	1
   826                           	global	?_lcd_num
   827  0052                     ?_lcd_num:	; 1 bytes @ 0x32
   828                           	global	?___ftsub
   829  0052                     ?___ftsub:	; 3 bytes @ 0x32
   830                           	global	lcd_num@number
   831  0052                     lcd_num@number:	; 2 bytes @ 0x32
   832                           	global	___ftsub@f2
   833  0052                     ___ftsub@f2:	; 3 bytes @ 0x32
   834  0052                     	ds	2
   835                           	global	lcd_num@digit
   836  0054                     lcd_num@digit:	; 1 bytes @ 0x34
   837  0054                     	ds	1
   838                           	global	??_lcd_num
   839  0055                     ??_lcd_num:	; 0 bytes @ 0x35
   840                           	global	___ftsub@f1
   841  0055                     ___ftsub@f1:	; 3 bytes @ 0x35
   842  0055                     	ds	4
   843                           	global	lcd_num@num
   844  0059                     lcd_num@num:	; 16 bytes @ 0x39
   845  0059                     	ds	16
   846                           	global	lcd_num@j
   847  0069                     lcd_num@j:	; 1 bytes @ 0x49
   848  0069                     	ds	1
   849                           	global	lcd_num@k
   850  006A                     lcd_num@k:	; 1 bytes @ 0x4A
   851  006A                     	ds	1
   852                           	global	lcd_num@i
   853  006B                     lcd_num@i:	; 1 bytes @ 0x4B
   854  006B                     	ds	1
   855                           	global	??_PID_MENU
   856  006C                     ??_PID_MENU:	; 0 bytes @ 0x4C
   857  006C                     	ds	3
   858 ;;Data sizes: Strings 47, constant 0, data 12, bss 20, persistent 0 stack 0
   859 ;;Auto spaces:   Size  Autos    Used
   860 ;; COMMON          14     14      14
   861 ;; BANK0           80     79      80
   862 ;; BANK1           80     14      45
   863 ;; BANK3           96      0       0
   864 ;; BANK2           96      0       0
   865                           
   866 ;;
   867 ;; Pointer list with targets:
   868                           
   869 ;; ?___lbtoft	float  size(1) Largest target is 0
   870 ;;
   871 ;; ?___ftpack	float  size(1) Largest target is 0
   872 ;;
   873 ;; ?___lwdiv	unsigned int  size(1) Largest target is 0
   874 ;;
   875 ;; ?___lwmod	unsigned int  size(1) Largest target is 0
   876 ;;
   877 ;; ?___ftsub	float  size(1) Largest target is 0
   878 ;;
   879 ;; ?___ftneg	float  size(1) Largest target is 0
   880 ;;
   881 ;; ?___fttol	long  size(1) Largest target is 0
   882 ;;
   883 ;; ?___ftmul	float  size(1) Largest target is 0
   884 ;;
   885 ;; ?___awtoft	float  size(1) Largest target is 0
   886 ;;
   887 ;; ?___ftadd	float  size(1) Largest target is 0
   888 ;;
   889 ;; send_string@s	PTR const unsigned char  size(2) Largest target is 16
   890 ;;		 -> lcd_num@num(BANK0[16]), STR_7(CODE[3]), STR_6(CODE[3]), STR_5(CODE[3]), 
   891 ;;		 -> STR_4(CODE[15]), STR_3(CODE[12]), STR_2(CODE[7]), STR_1(CODE[10]), 
   892 ;;
   893                           
   894                           
   895 ;;
   896 ;; Critical Paths under _main in COMMON
   897 ;;
   898 ;;   _main->___awtoft
   899 ;;   _LSA08_Init->_LSA08_UARTMode
   900 ;;   _lcdinit->_send_config
   901 ;;   _LSA08_UARTMode->_SEND_PACKET
   902 ;;   _LSA08_ClearJunction->_SEND_PACKET
   903 ;;   _send_string->_send_char
   904 ;;   _lcd_goto->_send_config
   905 ;;   _lcd_clr->_send_config
   906 ;;   _LSA08_GetPosition->_UART_DUMP
   907 ;;   _SEND_PACKET->_UART_RESPONSE
   908 ;;   ___lbtoft->___ftneg
   909 ;;   ___ftmul->___awtoft
   910 ;;   ___ftadd->___awtoft
   911 ;;   _send_config->_delay
   912 ;;   _send_char->_delay
   913 ;;   _motorspeed->_set_pwmr
   914 ;;   _motorspeed->_set_pwml
   915 ;;   _UART_DUMP->_UART_REC
   916 ;;   _UART_RESPONSE->_UART_REC
   917 ;;   ___ftge->___ftneg
   918 ;;   ___ftneg->___ftpack
   919 ;;   ___fttol->___ftneg
   920 ;;
   921 ;; Critical Paths under _main in BANK0
   922 ;;
   923 ;;   _main->_PID_MENU
   924 ;;   _PID_MENU->_lcd_num
   925 ;;   _LSA08_Init->_LSA08_UARTMode
   926 ;;   _lcd_num->___ftadd
   927 ;;   ___ftsub->___ftadd
   928 ;;   ___awtoft->___fttol
   929 ;;   ___lbtoft->___fttol
   930 ;;   ___ftmul->___lbtoft
   931 ;;   ___ftadd->___ftmul
   932 ;;
   933 ;; Critical Paths under _main in BANK1
   934 ;;
   935 ;;   _main->_PID_MENU
   936 ;;
   937 ;; Critical Paths under _main in BANK3
   938 ;;
   939 ;;   None.
   940 ;;
   941 ;; Critical Paths under _main in BANK2
   942 ;;
   943 ;;   None.
   944                           
   945 ;;
   946 ;;Main: autosize = 0, tempsize = 3, incstack = 0, save=0
   947 ;;
   948                           
   949 ;;
   950 ;;Call Graph Tables:
   951 ;;
   952 ;; ---------------------------------------------------------------------------------
   953 ;; (Depth) Function   	        Calls       Base Space   Used Autos Params    Refs
   954 ;; ---------------------------------------------------------------------------------
   955 ;; (0) _main                                                 9     9      0    8486
   956 ;;                                              5 BANK1      9     9      0
   957 ;;                             _initIO
   958 ;;                           _pwm_init
   959 ;;                         _motorspeed
   960 ;;                            _lcdinit
   961 ;;                         _LSA08_Init
   962 ;;                           _PID_MENU
   963 ;;                            _lcd_clr
   964 ;;                           _lcd_goto
   965 ;;                        _send_string
   966 ;;                  _LSA08_GetPosition
   967 ;;                         _PID_UPDATE
   968 ;;                           ___awtoft
   969 ;;                            ___ftmul
   970 ;;                            ___ftadd
   971 ;;                            ___fttol
   972 ;; ---------------------------------------------------------------------------------
   973 ;; (1) _PID_MENU                                             8     8      0    4773
   974 ;;                                             76 BANK0      3     3      0
   975 ;;                                              0 BANK1      5     5      0
   976 ;;                           _lcd_goto
   977 ;;                        _send_string
   978 ;;                            ___fttol
   979 ;;                            _lcd_num
   980 ;;                          _send_char
   981 ;;                           ___lbtoft
   982 ;;                            ___ftneg
   983 ;;                            ___ftadd
   984 ;;                            ___ftmul
   985 ;;                             ___ftge
   986 ;;                            ___ftsub
   987 ;; ---------------------------------------------------------------------------------
   988 ;; (1) _LSA08_Init                                           0     0      0     537
   989 ;;                          _UART_INIT
   990 ;;                _LSA08_ClearJunction
   991 ;;                     _LSA08_UARTMode
   992 ;; ---------------------------------------------------------------------------------
   993 ;; (2) _lcd_num                                             26    23      3     914
   994 ;;                                             50 BANK0     26    23      3
   995 ;;                            ___lwmod
   996 ;;                            ___lwdiv
   997 ;;                        _send_string
   998 ;;                          _send_char
   999 ;;                            ___fttol (ARG)
  1000 ;;                            ___ftmul (ARG)
  1001 ;;                            ___ftadd (ARG)
  1002 ;;                            ___ftneg (ARG)
  1003 ;;                           ___lbtoft (ARG)
  1004 ;; ---------------------------------------------------------------------------------
  1005 ;; (1) _lcdinit                                              0     0      0     179
  1006 ;;                        _send_config
  1007 ;;                            _lcd_clr
  1008 ;; ---------------------------------------------------------------------------------
  1009 ;; (2) _LSA08_UARTMode                                       4     4      0     291
  1010 ;;                                             13 COMMON     1     1      0
  1011 ;;                                              0 BANK0      3     3      0
  1012 ;;                        _SEND_PACKET
  1013 ;; ---------------------------------------------------------------------------------
  1014 ;; (2) _LSA08_ClearJunction                                  2     2      0     246
  1015 ;;                                              0 BANK0      2     2      0
  1016 ;;                        _SEND_PACKET
  1017 ;; ---------------------------------------------------------------------------------
  1018 ;; (2) ___ftsub                                              6     0      6    1094
  1019 ;;                                             50 BANK0      6     0      6
  1020 ;;                            ___ftadd
  1021 ;; ---------------------------------------------------------------------------------
  1022 ;; (1) _send_string                                          2     0      2     134
  1023 ;;                                              9 COMMON     2     0      2
  1024 ;;                          _send_char
  1025 ;; ---------------------------------------------------------------------------------
  1026 ;; (1) _lcd_goto                                             2     2      0     156
  1027 ;;                                              9 COMMON     2     2      0
  1028 ;;                        _send_config
  1029 ;; ---------------------------------------------------------------------------------
  1030 ;; (1) _lcd_clr                                              0     0      0     112
  1031 ;;                        _send_config
  1032 ;;                              _delay
  1033 ;; ---------------------------------------------------------------------------------
  1034 ;; (1) _LSA08_GetPosition                                    3     3      0     165
  1035 ;;                                              8 COMMON     3     3      0
  1036 ;;                           _UART_REC
  1037 ;;                          _UART_DUMP
  1038 ;; ---------------------------------------------------------------------------------
  1039 ;; (3) _SEND_PACKET                                          5     2      3     246
  1040 ;;                                              8 COMMON     5     2      3
  1041 ;;                          _UART_SEND
  1042 ;;                      _UART_RESPONSE
  1043 ;; ---------------------------------------------------------------------------------
  1044 ;; (1) ___awtoft                                             6     3      3     300
  1045 ;;                                             11 COMMON     3     3      0
  1046 ;;                                             14 BANK0      3     0      3
  1047 ;;                           ___ftpack
  1048 ;;                            ___fttol (ARG)
  1049 ;; ---------------------------------------------------------------------------------
  1050 ;; (2) ___lbtoft                                             8     5      3     231
  1051 ;;                                             11 COMMON     1     1      0
  1052 ;;                                             14 BANK0      7     4      3
  1053 ;;                           ___ftpack
  1054 ;;                            ___ftneg (ARG)
  1055 ;;                            ___fttol (ARG)
  1056 ;;                             ___ftge (ARG)
  1057 ;; ---------------------------------------------------------------------------------
  1058 ;; (1) ___ftmul                                             16    10      6     535
  1059 ;;                                             21 BANK0     16    10      6
  1060 ;;                           ___ftpack
  1061 ;;                           ___awtoft (ARG)
  1062 ;;                            ___fttol (ARG)
  1063 ;;                            ___ftneg (ARG)
  1064 ;;                           ___lbtoft (ARG)
  1065 ;;                             ___ftge (ARG)
  1066 ;; ---------------------------------------------------------------------------------
  1067 ;; (1) ___ftadd                                             13     7      6    1049
  1068 ;;                                             37 BANK0     13     7      6
  1069 ;;                           ___ftpack
  1070 ;;                            ___ftmul (ARG)
  1071 ;;                           ___awtoft (ARG)
  1072 ;;                            ___fttol (ARG)
  1073 ;;                            ___ftneg (ARG)
  1074 ;;                           ___lbtoft (ARG)
  1075 ;;                             ___ftge (ARG)
  1076 ;; ---------------------------------------------------------------------------------
  1077 ;; (2) _send_config                                          1     1      0      67
  1078 ;;                                              8 COMMON     1     1      0
  1079 ;;                              _delay
  1080 ;; ---------------------------------------------------------------------------------
  1081 ;; (2) _send_char                                            1     1      0      67
  1082 ;;                                              8 COMMON     1     1      0
  1083 ;;                              _delay
  1084 ;; ---------------------------------------------------------------------------------
  1085 ;; (1) _motorspeed                                           2     1      1      88
  1086 ;;                                              1 COMMON     2     1      1
  1087 ;;                           _set_pwmr
  1088 ;;                           _set_pwml
  1089 ;; ---------------------------------------------------------------------------------
  1090 ;; (2) _UART_DUMP                                            2     2      0      49
  1091 ;;                                              6 COMMON     2     2      0
  1092 ;;                           _UART_REC
  1093 ;; ---------------------------------------------------------------------------------
  1094 ;; (4) _UART_RESPONSE                                        2     2      0      70
  1095 ;;                                              6 COMMON     2     2      0
  1096 ;;                           _UART_REC
  1097 ;; ---------------------------------------------------------------------------------
  1098 ;; (2) ___ftge                                              12     6      6     136
  1099 ;;                                              0 BANK0     12     6      6
  1100 ;;                           ___ftpack (ARG)
  1101 ;;                            ___ftneg (ARG)
  1102 ;; ---------------------------------------------------------------------------------
  1103 ;; (2) ___ftneg                                              3     0      3      45
  1104 ;;                                              8 COMMON     3     0      3
  1105 ;;                           ___ftpack (ARG)
  1106 ;; ---------------------------------------------------------------------------------
  1107 ;; (1) ___fttol                                             14    10      4     252
  1108 ;;                                              0 BANK0     14    10      4
  1109 ;;                           ___ftpack (ARG)
  1110 ;;                            ___ftneg (ARG)
  1111 ;; ---------------------------------------------------------------------------------
  1112 ;; (2) ___ftpack                                             8     3      5     209
  1113 ;;                                              0 COMMON     8     3      5
  1114 ;; ---------------------------------------------------------------------------------
  1115 ;; (3) ___lwmod                                              6     2      4     159
  1116 ;;                                              0 COMMON     6     2      4
  1117 ;; ---------------------------------------------------------------------------------
  1118 ;; (3) ___lwdiv                                              8     4      4     162
  1119 ;;                                              0 COMMON     8     4      4
  1120 ;; ---------------------------------------------------------------------------------
  1121 ;; (3) _delay                                                8     4      4      45
  1122 ;;                                              0 COMMON     8     4      4
  1123 ;; ---------------------------------------------------------------------------------
  1124 ;; (2) _set_pwml                                             1     1      0      22
  1125 ;;                                              0 COMMON     1     1      0
  1126 ;; ---------------------------------------------------------------------------------
  1127 ;; (2) _set_pwmr                                             1     1      0      22
  1128 ;;                                              0 COMMON     1     1      0
  1129 ;; ---------------------------------------------------------------------------------
  1130 ;; (1) _PID_UPDATE                                           3     3      0      44
  1131 ;;                                              0 COMMON     3     3      0
  1132 ;; ---------------------------------------------------------------------------------
  1133 ;; (1) _pwm_init                                             0     0      0       0
  1134 ;; ---------------------------------------------------------------------------------
  1135 ;; (1) _initIO                                               0     0      0       0
  1136 ;; ---------------------------------------------------------------------------------
  1137 ;; (2) _UART_INIT                                            0     0      0       0
  1138 ;; ---------------------------------------------------------------------------------
  1139 ;; (4) _UART_SEND                                            1     1      0      22
  1140 ;;                                              0 COMMON     1     1      0
  1141 ;; ---------------------------------------------------------------------------------
  1142 ;; (3) _UART_REC                                             6     6      0      48
  1143 ;;                                              0 COMMON     6     6      0
  1144 ;; ---------------------------------------------------------------------------------
  1145 ;; Estimated maximum stack depth 4
  1146 ;; ---------------------------------------------------------------------------------
  1147                           
  1148 ;; Call Graph Graphs:
  1149                           
  1150 ;; _main (ROOT)
  1151 ;;   _initIO
  1152 ;;   _pwm_init
  1153 ;;   _motorspeed
  1154 ;;     _set_pwmr
  1155 ;;     _set_pwml
  1156 ;;   _lcdinit
  1157 ;;     _send_config
  1158 ;;       _delay
  1159 ;;     _lcd_clr
  1160 ;;       _send_config
  1161 ;;         _delay
  1162 ;;       _delay
  1163 ;;   _LSA08_Init
  1164 ;;     _UART_INIT
  1165 ;;     _LSA08_ClearJunction
  1166 ;;       _SEND_PACKET
  1167 ;;         _UART_SEND
  1168 ;;         _UART_RESPONSE
  1169 ;;           _UART_REC
  1170 ;;     _LSA08_UARTMode
  1171 ;;       _SEND_PACKET
  1172 ;;         _UART_SEND
  1173 ;;         _UART_RESPONSE
  1174 ;;           _UART_REC
  1175 ;;   _PID_MENU
  1176 ;;     _lcd_goto
  1177 ;;       _send_config
  1178 ;;         _delay
  1179 ;;     _send_string
  1180 ;;       _send_char
  1181 ;;         _delay
  1182 ;;     ___fttol
  1183 ;;       ___ftpack (ARG)
  1184 ;;       ___ftneg (ARG)
  1185 ;;         ___ftpack (ARG)
  1186 ;;     _lcd_num
  1187 ;;       ___lwmod
  1188 ;;       ___lwdiv
  1189 ;;       _send_string
  1190 ;;         _send_char
  1191 ;;           _delay
  1192 ;;       _send_char
  1193 ;;         _delay
  1194 ;;       ___fttol (ARG)
  1195 ;;         ___ftpack (ARG)
  1196 ;;         ___ftneg (ARG)
  1197 ;;           ___ftpack (ARG)
  1198 ;;       ___ftmul (ARG)
  1199 ;;         ___ftpack
  1200 ;;         ___awtoft (ARG)
  1201 ;;           ___ftpack
  1202 ;;           ___fttol (ARG)
  1203 ;;             ___ftpack (ARG)
  1204 ;;             ___ftneg (ARG)
  1205 ;;               ___ftpack (ARG)
  1206 ;;         ___fttol (ARG)
  1207 ;;           ___ftpack (ARG)
  1208 ;;           ___ftneg (ARG)
  1209 ;;             ___ftpack (ARG)
  1210 ;;         ___ftneg (ARG)
  1211 ;;           ___ftpack (ARG)
  1212 ;;         ___lbtoft (ARG)
  1213 ;;           ___ftpack
  1214 ;;           ___ftneg (ARG)
  1215 ;;             ___ftpack (ARG)
  1216 ;;           ___fttol (ARG)
  1217 ;;             ___ftpack (ARG)
  1218 ;;             ___ftneg (ARG)
  1219 ;;               ___ftpack (ARG)
  1220 ;;           ___ftge (ARG)
  1221 ;;             ___ftpack (ARG)
  1222 ;;             ___ftneg (ARG)
  1223 ;;               ___ftpack (ARG)
  1224 ;;         ___ftge (ARG)
  1225 ;;           ___ftpack (ARG)
  1226 ;;           ___ftneg (ARG)
  1227 ;;             ___ftpack (ARG)
  1228 ;;       ___ftadd (ARG)
  1229 ;;         ___ftpack
  1230 ;;         ___ftmul (ARG)
  1231 ;;           ___ftpack
  1232 ;;           ___awtoft (ARG)
  1233 ;;             ___ftpack
  1234 ;;             ___fttol (ARG)
  1235 ;;               ___ftpack (ARG)
  1236 ;;               ___ftneg (ARG)
  1237 ;;                 ___ftpack (ARG)
  1238 ;;           ___fttol (ARG)
  1239 ;;             ___ftpack (ARG)
  1240 ;;             ___ftneg (ARG)
  1241 ;;               ___ftpack (ARG)
  1242 ;;           ___ftneg (ARG)
  1243 ;;             ___ftpack (ARG)
  1244 ;;           ___lbtoft (ARG)
  1245 ;;             ___ftpack
  1246 ;;             ___ftneg (ARG)
  1247 ;;               ___ftpack (ARG)
  1248 ;;             ___fttol (ARG)
  1249 ;;               ___ftpack (ARG)
  1250 ;;               ___ftneg (ARG)
  1251 ;;                 ___ftpack (ARG)
  1252 ;;             ___ftge (ARG)
  1253 ;;               ___ftpack (ARG)
  1254 ;;               ___ftneg (ARG)
  1255 ;;                 ___ftpack (ARG)
  1256 ;;           ___ftge (ARG)
  1257 ;;             ___ftpack (ARG)
  1258 ;;             ___ftneg (ARG)
  1259 ;;               ___ftpack (ARG)
  1260 ;;         ___awtoft (ARG)
  1261 ;;           ___ftpack
  1262 ;;           ___fttol (ARG)
  1263 ;;             ___ftpack (ARG)
  1264 ;;             ___ftneg (ARG)
  1265 ;;               ___ftpack (ARG)
  1266 ;;         ___fttol (ARG)
  1267 ;;           ___ftpack (ARG)
  1268 ;;           ___ftneg (ARG)
  1269 ;;             ___ftpack (ARG)
  1270 ;;         ___ftneg (ARG)
  1271 ;;           ___ftpack (ARG)
  1272 ;;         ___lbtoft (ARG)
  1273 ;;           ___ftpack
  1274 ;;           ___ftneg (ARG)
  1275 ;;             ___ftpack (ARG)
  1276 ;;           ___fttol (ARG)
  1277 ;;             ___ftpack (ARG)
  1278 ;;             ___ftneg (ARG)
  1279 ;;               ___ftpack (ARG)
  1280 ;;           ___ftge (ARG)
  1281 ;;             ___ftpack (ARG)
  1282 ;;             ___ftneg (ARG)
  1283 ;;               ___ftpack (ARG)
  1284 ;;         ___ftge (ARG)
  1285 ;;           ___ftpack (ARG)
  1286 ;;           ___ftneg (ARG)
  1287 ;;             ___ftpack (ARG)
  1288 ;;       ___ftneg (ARG)
  1289 ;;         ___ftpack (ARG)
  1290 ;;       ___lbtoft (ARG)
  1291 ;;         ___ftpack
  1292 ;;         ___ftneg (ARG)
  1293 ;;           ___ftpack (ARG)
  1294 ;;         ___fttol (ARG)
  1295 ;;           ___ftpack (ARG)
  1296 ;;           ___ftneg (ARG)
  1297 ;;             ___ftpack (ARG)
  1298 ;;         ___ftge (ARG)
  1299 ;;           ___ftpack (ARG)
  1300 ;;           ___ftneg (ARG)
  1301 ;;             ___ftpack (ARG)
  1302 ;;     _send_char
  1303 ;;       _delay
  1304 ;;     ___lbtoft
  1305 ;;       ___ftpack
  1306 ;;       ___ftneg (ARG)
  1307 ;;         ___ftpack (ARG)
  1308 ;;       ___fttol (ARG)
  1309 ;;         ___ftpack (ARG)
  1310 ;;         ___ftneg (ARG)
  1311 ;;           ___ftpack (ARG)
  1312 ;;       ___ftge (ARG)
  1313 ;;         ___ftpack (ARG)
  1314 ;;         ___ftneg (ARG)
  1315 ;;           ___ftpack (ARG)
  1316 ;;     ___ftneg
  1317 ;;       ___ftpack (ARG)
  1318 ;;     ___ftadd
  1319 ;;       ___ftpack
  1320 ;;       ___ftmul (ARG)
  1321 ;;         ___ftpack
  1322 ;;         ___awtoft (ARG)
  1323 ;;           ___ftpack
  1324 ;;           ___fttol (ARG)
  1325 ;;             ___ftpack (ARG)
  1326 ;;             ___ftneg (ARG)
  1327 ;;               ___ftpack (ARG)
  1328 ;;         ___fttol (ARG)
  1329 ;;           ___ftpack (ARG)
  1330 ;;           ___ftneg (ARG)
  1331 ;;             ___ftpack (ARG)
  1332 ;;         ___ftneg (ARG)
  1333 ;;           ___ftpack (ARG)
  1334 ;;         ___lbtoft (ARG)
  1335 ;;           ___ftpack
  1336 ;;           ___ftneg (ARG)
  1337 ;;             ___ftpack (ARG)
  1338 ;;           ___fttol (ARG)
  1339 ;;             ___ftpack (ARG)
  1340 ;;             ___ftneg (ARG)
  1341 ;;               ___ftpack (ARG)
  1342 ;;           ___ftge (ARG)
  1343 ;;             ___ftpack (ARG)
  1344 ;;             ___ftneg (ARG)
  1345 ;;               ___ftpack (ARG)
  1346 ;;         ___ftge (ARG)
  1347 ;;           ___ftpack (ARG)
  1348 ;;           ___ftneg (ARG)
  1349 ;;             ___ftpack (ARG)
  1350 ;;       ___awtoft (ARG)
  1351 ;;         ___ftpack
  1352 ;;         ___fttol (ARG)
  1353 ;;           ___ftpack (ARG)
  1354 ;;           ___ftneg (ARG)
  1355 ;;             ___ftpack (ARG)
  1356 ;;       ___fttol (ARG)
  1357 ;;         ___ftpack (ARG)
  1358 ;;         ___ftneg (ARG)
  1359 ;;           ___ftpack (ARG)
  1360 ;;       ___ftneg (ARG)
  1361 ;;         ___ftpack (ARG)
  1362 ;;       ___lbtoft (ARG)
  1363 ;;         ___ftpack
  1364 ;;         ___ftneg (ARG)
  1365 ;;           ___ftpack (ARG)
  1366 ;;         ___fttol (ARG)
  1367 ;;           ___ftpack (ARG)
  1368 ;;           ___ftneg (ARG)
  1369 ;;             ___ftpack (ARG)
  1370 ;;         ___ftge (ARG)
  1371 ;;           ___ftpack (ARG)
  1372 ;;           ___ftneg (ARG)
  1373 ;;             ___ftpack (ARG)
  1374 ;;       ___ftge (ARG)
  1375 ;;         ___ftpack (ARG)
  1376 ;;         ___ftneg (ARG)
  1377 ;;           ___ftpack (ARG)
  1378 ;;     ___ftmul
  1379 ;;       ___ftpack
  1380 ;;       ___awtoft (ARG)
  1381 ;;         ___ftpack
  1382 ;;         ___fttol (ARG)
  1383 ;;           ___ftpack (ARG)
  1384 ;;           ___ftneg (ARG)
  1385 ;;             ___ftpack (ARG)
  1386 ;;       ___fttol (ARG)
  1387 ;;         ___ftpack (ARG)
  1388 ;;         ___ftneg (ARG)
  1389 ;;           ___ftpack (ARG)
  1390 ;;       ___ftneg (ARG)
  1391 ;;         ___ftpack (ARG)
  1392 ;;       ___lbtoft (ARG)
  1393 ;;         ___ftpack
  1394 ;;         ___ftneg (ARG)
  1395 ;;           ___ftpack (ARG)
  1396 ;;         ___fttol (ARG)
  1397 ;;           ___ftpack (ARG)
  1398 ;;           ___ftneg (ARG)
  1399 ;;             ___ftpack (ARG)
  1400 ;;         ___ftge (ARG)
  1401 ;;           ___ftpack (ARG)
  1402 ;;           ___ftneg (ARG)
  1403 ;;             ___ftpack (ARG)
  1404 ;;       ___ftge (ARG)
  1405 ;;         ___ftpack (ARG)
  1406 ;;         ___ftneg (ARG)
  1407 ;;           ___ftpack (ARG)
  1408 ;;     ___ftge
  1409 ;;       ___ftpack (ARG)
  1410 ;;       ___ftneg (ARG)
  1411 ;;         ___ftpack (ARG)
  1412 ;;     ___ftsub
  1413 ;;       ___ftadd
  1414 ;;         ___ftpack
  1415 ;;         ___ftmul (ARG)
  1416 ;;           ___ftpack
  1417 ;;           ___awtoft (ARG)
  1418 ;;             ___ftpack
  1419 ;;             ___fttol (ARG)
  1420 ;;               ___ftpack (ARG)
  1421 ;;               ___ftneg (ARG)
  1422 ;;                 ___ftpack (ARG)
  1423 ;;           ___fttol (ARG)
  1424 ;;             ___ftpack (ARG)
  1425 ;;             ___ftneg (ARG)
  1426 ;;               ___ftpack (ARG)
  1427 ;;           ___ftneg (ARG)
  1428 ;;             ___ftpack (ARG)
  1429 ;;           ___lbtoft (ARG)
  1430 ;;             ___ftpack
  1431 ;;             ___ftneg (ARG)
  1432 ;;               ___ftpack (ARG)
  1433 ;;             ___fttol (ARG)
  1434 ;;               ___ftpack (ARG)
  1435 ;;               ___ftneg (ARG)
  1436 ;;                 ___ftpack (ARG)
  1437 ;;             ___ftge (ARG)
  1438 ;;               ___ftpack (ARG)
  1439 ;;               ___ftneg (ARG)
  1440 ;;                 ___ftpack (ARG)
  1441 ;;           ___ftge (ARG)
  1442 ;;             ___ftpack (ARG)
  1443 ;;             ___ftneg (ARG)
  1444 ;;               ___ftpack (ARG)
  1445 ;;         ___awtoft (ARG)
  1446 ;;           ___ftpack
  1447 ;;           ___fttol (ARG)
  1448 ;;             ___ftpack (ARG)
  1449 ;;             ___ftneg (ARG)
  1450 ;;               ___ftpack (ARG)
  1451 ;;         ___fttol (ARG)
  1452 ;;           ___ftpack (ARG)
  1453 ;;           ___ftneg (ARG)
  1454 ;;             ___ftpack (ARG)
  1455 ;;         ___ftneg (ARG)
  1456 ;;           ___ftpack (ARG)
  1457 ;;         ___lbtoft (ARG)
  1458 ;;           ___ftpack
  1459 ;;           ___ftneg (ARG)
  1460 ;;             ___ftpack (ARG)
  1461 ;;           ___fttol (ARG)
  1462 ;;             ___ftpack (ARG)
  1463 ;;             ___ftneg (ARG)
  1464 ;;               ___ftpack (ARG)
  1465 ;;           ___ftge (ARG)
  1466 ;;             ___ftpack (ARG)
  1467 ;;             ___ftneg (ARG)
  1468 ;;               ___ftpack (ARG)
  1469 ;;         ___ftge (ARG)
  1470 ;;           ___ftpack (ARG)
  1471 ;;           ___ftneg (ARG)
  1472 ;;             ___ftpack (ARG)
  1473 ;;   _lcd_clr
  1474 ;;     _send_config
  1475 ;;       _delay
  1476 ;;     _delay
  1477 ;;   _lcd_goto
  1478 ;;     _send_config
  1479 ;;       _delay
  1480 ;;   _send_string
  1481 ;;     _send_char
  1482 ;;       _delay
  1483 ;;   _LSA08_GetPosition
  1484 ;;     _UART_REC
  1485 ;;     _UART_DUMP
  1486 ;;       _UART_REC
  1487 ;;   _PID_UPDATE
  1488 ;;   ___awtoft
  1489 ;;     ___ftpack
  1490 ;;     ___fttol (ARG)
  1491 ;;       ___ftpack (ARG)
  1492 ;;       ___ftneg (ARG)
  1493 ;;         ___ftpack (ARG)
  1494 ;;   ___ftmul
  1495 ;;     ___ftpack
  1496 ;;     ___awtoft (ARG)
  1497 ;;       ___ftpack
  1498 ;;       ___fttol (ARG)
  1499 ;;         ___ftpack (ARG)
  1500 ;;         ___ftneg (ARG)
  1501 ;;           ___ftpack (ARG)
  1502 ;;     ___fttol (ARG)
  1503 ;;       ___ftpack (ARG)
  1504 ;;       ___ftneg (ARG)
  1505 ;;         ___ftpack (ARG)
  1506 ;;     ___ftneg (ARG)
  1507 ;;       ___ftpack (ARG)
  1508 ;;     ___lbtoft (ARG)
  1509 ;;       ___ftpack
  1510 ;;       ___ftneg (ARG)
  1511 ;;         ___ftpack (ARG)
  1512 ;;       ___fttol (ARG)
  1513 ;;         ___ftpack (ARG)
  1514 ;;         ___ftneg (ARG)
  1515 ;;           ___ftpack (ARG)
  1516 ;;       ___ftge (ARG)
  1517 ;;         ___ftpack (ARG)
  1518 ;;         ___ftneg (ARG)
  1519 ;;           ___ftpack (ARG)
  1520 ;;     ___ftge (ARG)
  1521 ;;       ___ftpack (ARG)
  1522 ;;       ___ftneg (ARG)
  1523 ;;         ___ftpack (ARG)
  1524 ;;   ___ftadd
  1525 ;;     ___ftpack
  1526 ;;     ___ftmul (ARG)
  1527 ;;       ___ftpack
  1528 ;;       ___awtoft (ARG)
  1529 ;;         ___ftpack
  1530 ;;         ___fttol (ARG)
  1531 ;;           ___ftpack (ARG)
  1532 ;;           ___ftneg (ARG)
  1533 ;;             ___ftpack (ARG)
  1534 ;;       ___fttol (ARG)
  1535 ;;         ___ftpack (ARG)
  1536 ;;         ___ftneg (ARG)
  1537 ;;           ___ftpack (ARG)
  1538 ;;       ___ftneg (ARG)
  1539 ;;         ___ftpack (ARG)
  1540 ;;       ___lbtoft (ARG)
  1541 ;;         ___ftpack
  1542 ;;         ___ftneg (ARG)
  1543 ;;           ___ftpack (ARG)
  1544 ;;         ___fttol (ARG)
  1545 ;;           ___ftpack (ARG)
  1546 ;;           ___ftneg (ARG)
  1547 ;;             ___ftpack (ARG)
  1548 ;;         ___ftge (ARG)
  1549 ;;           ___ftpack (ARG)
  1550 ;;           ___ftneg (ARG)
  1551 ;;             ___ftpack (ARG)
  1552 ;;       ___ftge (ARG)
  1553 ;;         ___ftpack (ARG)
  1554 ;;         ___ftneg (ARG)
  1555 ;;           ___ftpack (ARG)
  1556 ;;     ___awtoft (ARG)
  1557 ;;       ___ftpack
  1558 ;;       ___fttol (ARG)
  1559 ;;         ___ftpack (ARG)
  1560 ;;         ___ftneg (ARG)
  1561 ;;           ___ftpack (ARG)
  1562 ;;     ___fttol (ARG)
  1563 ;;       ___ftpack (ARG)
  1564 ;;       ___ftneg (ARG)
  1565 ;;         ___ftpack (ARG)
  1566 ;;     ___ftneg (ARG)
  1567 ;;       ___ftpack (ARG)
  1568 ;;     ___lbtoft (ARG)
  1569 ;;       ___ftpack
  1570 ;;       ___ftneg (ARG)
  1571 ;;         ___ftpack (ARG)
  1572 ;;       ___fttol (ARG)
  1573 ;;         ___ftpack (ARG)
  1574 ;;         ___ftneg (ARG)
  1575 ;;           ___ftpack (ARG)
  1576 ;;       ___ftge (ARG)
  1577 ;;         ___ftpack (ARG)
  1578 ;;         ___ftneg (ARG)
  1579 ;;           ___ftpack (ARG)
  1580 ;;     ___ftge (ARG)
  1581 ;;       ___ftpack (ARG)
  1582 ;;       ___ftneg (ARG)
  1583 ;;         ___ftpack (ARG)
  1584 ;;   ___fttol
  1585 ;;     ___ftpack (ARG)
  1586 ;;     ___ftneg (ARG)
  1587 ;;       ___ftpack (ARG)
  1588 ;;
  1589                           
  1590 ;; Address spaces:
  1591                           
  1592 ;;Name               Size   Autos  Total    Cost      Usage
  1593 ;;BANK3               60      0       0       9        0.0%
  1594 ;;BITBANK3            60      0       0       8        0.0%
  1595 ;;SFR3                 0      0       0       4        0.0%
  1596 ;;BITSFR3              0      0       0       4        0.0%
  1597 ;;BANK2               60      0       0      11        0.0%
  1598 ;;BITBANK2            60      0       0      10        0.0%
  1599 ;;SFR2                 0      0       0       5        0.0%
  1600 ;;BITSFR2              0      0       0       5        0.0%
  1601 ;;SFR1                 0      0       0       2        0.0%
  1602 ;;BITSFR1              0      0       0       2        0.0%
  1603 ;;BANK1               50      E      2D       7       56.3%
  1604 ;;BITBANK1            50      0       0       6        0.0%
  1605 ;;CODE                 0      0       0       0        0.0%
  1606 ;;DATA                 0      0      90      12        0.0%
  1607 ;;ABS                  0      0      8B       3        0.0%
  1608 ;;NULL                 0      0       0       0        0.0%
  1609 ;;STACK                0      0       5       2        0.0%
  1610 ;;BANK0               50     4F      50       5      100.0%
  1611 ;;BITBANK0            50      0       0       4        0.0%
  1612 ;;SFR0                 0      0       0       1        0.0%
  1613 ;;BITSFR0              0      0       0       1        0.0%
  1614 ;;COMMON               E      E       E       1      100.0%
  1615 ;;BITCOMMON            E      0       0       0        0.0%
  1616 ;;EEDATA             100      0       0       0        0.0%
  1617                           
  1618                           	global	_main
  1619                           psect	maintext,global,class=CODE,delta=2
  1620                           global __pmaintext
  1621  012D                     __pmaintext:
  1622                           
  1623 ;; *************** function _main *****************
  1624 ;; Defined at:
  1625 ;;		line 97 in file "Main.c"
  1626 ;; Parameters:    Size  Location     Type
  1627 ;;		None
  1628 ;; Auto vars:     Size  Location     Type
  1629 ;;  rightspeed      2   12[BANK1 ] short 
  1630 ;;  leftspeed       2   10[BANK1 ] short 
  1631 ;;  pos             1    9[BANK1 ] char 
  1632 ;;  junctioncoun    1    8[BANK1 ] unsigned char 
  1633 ;; Return value:  Size  Location     Type
  1634 ;;		None               void
  1635 ;; Registers used:
  1636 ;;		wreg, fsr0l, fsr0h, status,2, status,0, btemp+1, pclath, cstack
  1637 ;; Tracked objects:
  1638 ;;		On entry : 17F/0
  1639 ;;		On exit  : 0/0
  1640 ;;		Unchanged: 0/0
  1641 ;; Data sizes:     COMMON   BANK0   BANK1   BANK3   BANK2
  1642 ;;      Params:         0       0       0       0       0
  1643 ;;      Locals:         0       0       6       0       0
  1644 ;;      Temps:          0       0       3       0       0
  1645 ;;      Totals:         0       0       9       0       0
  1646 ;;Total ram usage:        9 bytes
  1647 ;; Hardware stack levels required when called:    5
  1648 ;; This function calls:
  1649 ;;		_initIO
  1650 ;;		_pwm_init
  1651 ;;		_motorspeed
  1652 ;;		_lcdinit
  1653 ;;		_LSA08_Init
  1654 ;;		_PID_MENU
  1655 ;;		_lcd_clr
  1656 ;;		_lcd_goto
  1657 ;;		_send_string
  1658 ;;		_LSA08_GetPosition
  1659 ;;		_PID_UPDATE
  1660 ;;		___awtoft
  1661 ;;		___ftmul
  1662 ;;		___ftadd
  1663 ;;		___fttol
  1664 ;; This function is called by:
  1665 ;;		Startup code after reset
  1666 ;; This function uses a non-reentrant model
  1667 ;;
  1668                           psect	maintext
  1669                           	file	"Main.c"
  1670                           	line	97
  1671                           	global	__size_of_main
  1672  01EE                     	__size_of_main	equ	__end_of_main-_main
  1673                           	
  1674  012D                     _main:	
  1675                           	opt	stack 3
  1676                           ; Regs used in _main: [wreg-fsr0h+status,2+status,0+btemp+1+pclath+cstack]
  1677                           	line	99
  1678                           	
  1679  012D                     l5550:	
  1680                           ;Main.c: 99: unsigned char junctioncount=0;
  1681  012D  1683               	bsf	status, 5	;RP0=1, select bank1
  1682  012E  1303               	bcf	status, 6	;RP1=0, select bank1
  1683  012F  01BC               	clrf	(main@junctioncount)^080h
  1684                           	line	104
  1685                           	
  1686  0130                     l5552:	
  1687                           ;Main.c: 100: signed char pos;
  1688                           ;Main.c: 101: signed short leftspeed, rightspeed;
  1689                           ;Main.c: 104: initIO();
  1690  0130  120A  158A  2112   	fcall	_initIO
              120A  118A         
  1691                           	line	105
  1692                           ;Main.c: 105: pwm_init();
  1693  0135  120A  158A  212C   	fcall	_pwm_init
              120A  118A         
  1694                           	line	106
  1695                           	
  1696  013A                     l5554:	
  1697                           ;Main.c: 106: RC0=0;; RC3=1;;;
  1698  013A  1283               	bcf	status, 5	;RP0=0, select bank0
  1699  013B  1303               	bcf	status, 6	;RP1=0, select bank0
  1700  013C  1007               	bcf	(56/8),(56)&7
  1701                           	
  1702  013D                     l5556:	
  1703  013D  1587               	bsf	(59/8),(59)&7
  1704                           	line	107
  1705                           ;Main.c: 107: motorspeed(0,0);;
  1706  013E  01F1               	clrf	(?_motorspeed)
  1707  013F  3000               	movlw	(0)
  1708  0140  120A  158A  208B   	fcall	_motorspeed
              120A  118A         
  1709                           	line	108
  1710                           ;Main.c: 108: lcdinit();
  1711  0145  120A  158A  2251   	fcall	_lcdinit
              120A  118A         
  1712                           	line	109
  1713                           	
  1714  014A                     l5558:	
  1715                           ;Main.c: 109: _delay((unsigned long)((100)*(20000000/4000.0)));
  1716                           	opt asmopt_off
  1717  014A  3003               movlw  3
  1718  014B  1683               	bsf	status, 5	;RP0=1, select bank1
  1719  014C  1303               	bcf	status, 6	;RP1=0, select bank1
  1720  014D  00BB               movwf	((??_main+0)^080h+0+2),f
  1721  014E  308A               movlw	138
  1722  014F  00BA               movwf	((??_main+0)^080h+0+1),f
  1723  0150  3056               	movlw	86
  1724  0151  00B9               movwf	((??_main+0)^080h+0),f
  1725  0152                     u4137:
  1726  0152  0BB9               	decfsz	((??_main+0)^080h+0),f
  1727  0153  2952               	goto	u4137
  1728  0154  0BBA               	decfsz	((??_main+0)^080h+0+1),f
  1729  0155  2952               	goto	u4137
  1730  0156  0BBB               	decfsz	((??_main+0)^080h+0+2),f
  1731  0157  2952               	goto	u4137
  1732  0158  2959               	nop2
  1733                           opt asmopt_on
  1734                           
  1735                           	line	111
  1736                           	
  1737  0159                     l5560:	
  1738                           ;Main.c: 111: LSA08_Init();
  1739  0159  120A  158A  20E5   	fcall	_LSA08_Init
              120A  118A         
  1740                           	line	114
  1741                           	
  1742  015E                     l5562:	
  1743                           ;Main.c: 114: PID_MENU();
  1744  015E  120A  118A  231B   	fcall	_PID_MENU
              120A  118A         
  1745                           	line	116
  1746                           	
  1747  0163                     l5564:	
  1748                           ;Main.c: 116: lcd_clr();
  1749  0163  120A  158A  20D1   	fcall	_lcd_clr
              120A  118A         
  1750                           	line	117
  1751                           	
  1752  0168                     l5566:	
  1753                           ;Main.c: 117: lcd_goto(0);
  1754  0168  3000               	movlw	(0)
  1755  0169  120A  158A  2146   	fcall	_lcd_goto
              120A  118A         
  1756                           	line	118
  1757                           	
  1758  016E                     l5568:	
  1759                           ;Main.c: 118: send_string("Press SW1");
  1760  016E  301C               	movlw	low((STR_1-__stringbase))
  1761  016F  00F9               	movwf	(?_send_string)
  1762  0170  3080               	movlw	80h
  1763  0171  00FA               	movwf	(?_send_string+1)
  1764  0172  120A  158A  2302   	fcall	_send_string
              120A  118A         
  1765                           	line	120
  1766                           ;Main.c: 120: _delay((unsigned long)((500)*(20000000/4000.0)));
  1767                           	opt asmopt_off
  1768  0177  300D               movlw  13
  1769  0178  1683               	bsf	status, 5	;RP0=1, select bank1
  1770  0179  1303               	bcf	status, 6	;RP1=0, select bank1
  1771  017A  00BB               movwf	((??_main+0)^080h+0+2),f
  1772  017B  30AF               movlw	175
  1773  017C  00BA               movwf	((??_main+0)^080h+0+1),f
  1774  017D  30C1               	movlw	193
  1775  017E  00B9               movwf	((??_main+0)^080h+0),f
  1776  017F                     u4147:
  1777  017F  0BB9               	decfsz	((??_main+0)^080h+0),f
  1778  0180  297F               	goto	u4147
  1779  0181  0BBA               	decfsz	((??_main+0)^080h+0+1),f
  1780  0182  297F               	goto	u4147
  1781  0183  0BBB               	decfsz	((??_main+0)^080h+0+2),f
  1782  0184  297F               	goto	u4147
  1783  0185  0064               	clrwdt
  1784                           opt asmopt_on
  1785                           
  1786                           	line	121
  1787                           ;Main.c: 121: _delay((unsigned long)((500)*(20000000/4000.0)));
  1788                           	opt asmopt_off
  1789  0186  300D               movlw  13
  1790  0187  1683               	bsf	status, 5	;RP0=1, select bank1
  1791  0188  1303               	bcf	status, 6	;RP1=0, select bank1
  1792  0189  00BB               movwf	((??_main+0)^080h+0+2),f
  1793  018A  30AF               movlw	175
  1794  018B  00BA               movwf	((??_main+0)^080h+0+1),f
  1795  018C  30C1               	movlw	193
  1796  018D  00B9               movwf	((??_main+0)^080h+0),f
  1797  018E                     u4157:
  1798  018E  0BB9               	decfsz	((??_main+0)^080h+0),f
  1799  018F  298E               	goto	u4157
  1800  0190  0BBA               	decfsz	((??_main+0)^080h+0+1),f
  1801  0191  298E               	goto	u4157
  1802  0192  0BBB               	decfsz	((??_main+0)^080h+0+2),f
  1803  0193  298E               	goto	u4157
  1804  0194  0064               	clrwdt
  1805                           opt asmopt_on
  1806                           
  1807                           	line	123
  1808                           ;Main.c: 123: while(RB0);
  1809  0195  2996               	goto	l1141
  1810                           	
  1811  0196                     l1142:	
  1812                           	
  1813  0196                     l1141:	
  1814  0196  1283               	bcf	status, 5	;RP0=0, select bank0
  1815  0197  1303               	bcf	status, 6	;RP1=0, select bank0
  1816  0198  1806               	btfsc	(48/8),(48)&7
  1817  0199  299B               	goto	u4081
  1818  019A  299C               	goto	u4080
  1819  019B                     u4081:
  1820  019B  2996               	goto	l1141
  1821  019C                     u4080:
  1822  019C  299D               	goto	l5570
  1823                           	
  1824  019D                     l1143:	
  1825                           	line	125
  1826                           	
  1827  019D                     l5570:	
  1828                           ;Main.c: 125: lcd_clr();
  1829  019D  120A  158A  20D1   	fcall	_lcd_clr
              120A  118A         
  1830                           	line	126
  1831                           ;Main.c: 126: lcd_goto(0);
  1832  01A2  3000               	movlw	(0)
  1833  01A3  120A  158A  2146   	fcall	_lcd_goto
              120A  118A         
  1834                           	line	127
  1835                           	
  1836  01A8                     l5572:	
  1837                           ;Main.c: 127: send_string("LSA08 ");
  1838  01A8  3026               	movlw	low((STR_2-__stringbase))
  1839  01A9  00F9               	movwf	(?_send_string)
  1840  01AA  3080               	movlw	80h
  1841  01AB  00FA               	movwf	(?_send_string+1)
  1842  01AC  120A  158A  2302   	fcall	_send_string
              120A  118A         
  1843                           	line	128
  1844                           	
  1845  01B1                     l5574:	
  1846                           ;Main.c: 128: lcd_goto(20);
  1847  01B1  3014               	movlw	(014h)
  1848  01B2  120A  158A  2146   	fcall	_lcd_goto
              120A  118A         
  1849                           	line	129
  1850                           ;Main.c: 129: send_string("Line Follow");
  1851  01B7  3010               	movlw	low((STR_3-__stringbase))
  1852  01B8  00F9               	movwf	(?_send_string)
  1853  01B9  3080               	movlw	80h
  1854  01BA  00FA               	movwf	(?_send_string+1)
  1855  01BB  120A  158A  2302   	fcall	_send_string
              120A  118A         
  1856  01C0  29C1               	goto	l5576
  1857                           	line	132
  1858                           ;Main.c: 132: while(1){
  1859                           	
  1860  01C1                     l1144:	
  1861                           	line	135
  1862                           	
  1863  01C1                     l5576:	
  1864                           ;Main.c: 135: pos=LSA08_GetPosition();
  1865  01C1  120A  158A  22A6   	fcall	_LSA08_GetPosition
              120A  118A         
  1866  01C6  1683               	bsf	status, 5	;RP0=1, select bank1
  1867  01C7  1303               	bcf	status, 6	;RP1=0, select bank1
  1868  01C8  00B9               	movwf	(??_main+0)^080h+0
  1869  01C9  0839               	movf	(??_main+0)^080h+0,w
  1870  01CA  00BD               	movwf	(main@pos)^080h
  1871                           	line	138
  1872                           	
  1873  01CB                     l5578:	
  1874                           ;Main.c: 138: PID_UPDATE(pos);
  1875  01CB  083D               	movf	(main@pos)^080h,w
  1876  01CC  120A  158A  2430   	fcall	_PID_UPDATE
              120A  118A         
  1877                           	line	141
  1878                           	
  1879  01D1                     l5580:	
  1880                           ;Main.c: 141: m_diff=(signed short)(Kp*(float)proportional+Ki*(float)integral+Kd*(float)
                                 derivative);
  1881  01D1  1683               	bsf	status, 5	;RP0=1, select bank1
  1882  01D2  1303               	bcf	status, 6	;RP1=0, select bank1
  1883  01D3  082F               	movf	(_proportional+1)^080h,w
  1884  01D4  1283               	bcf	status, 5	;RP0=0, select bank0
  1885  01D5  1303               	bcf	status, 6	;RP1=0, select bank0
  1886  01D6  01AF               	clrf	(?___awtoft+1)
  1887  01D7  07AF               	addwf	(?___awtoft+1)
  1888  01D8  1683               	bsf	status, 5	;RP0=1, select bank1
  1889  01D9  1303               	bcf	status, 6	;RP1=0, select bank1
  1890  01DA  082E               	movf	(_proportional)^080h,w
  1891  01DB  1283               	bcf	status, 5	;RP0=0, select bank0
  1892  01DC  1303               	bcf	status, 6	;RP1=0, select bank0
  1893  01DD  01AE               	clrf	(?___awtoft)
  1894  01DE  07AE               	addwf	(?___awtoft)
  1895                           
  1896  01DF  120A  158A  227A   	fcall	___awtoft
              120A  118A         
  1897  01E4  1283               	bcf	status, 5	;RP0=0, select bank0
  1898  01E5  1303               	bcf	status, 6	;RP1=0, select bank0
  1899  01E6  082E               	movf	(0+(?___awtoft)),w
  1900  01E7  00B8               	movwf	0+(?___ftmul)+03h
  1901  01E8  082F               	movf	(1+(?___awtoft)),w
  1902  01E9  00B9               	movwf	1+(?___ftmul)+03h
  1903  01EA  0830               	movf	(2+(?___awtoft)),w
  1904  01EB  00BA               	movwf	2+(?___ftmul)+03h
  1905  01EC  1683               	bsf	status, 5	;RP0=1, select bank1
  1906  01ED  1303               	bcf	status, 6	;RP1=0, select bank1
  1907  01EE  0848               	movf	(_Kp)^080h,w
  1908  01EF  1283               	bcf	status, 5	;RP0=0, select bank0
  1909  01F0  1303               	bcf	status, 6	;RP1=0, select bank0
  1910  01F1  00B5               	movwf	(?___ftmul)
  1911  01F2  1683               	bsf	status, 5	;RP0=1, select bank1
  1912  01F3  1303               	bcf	status, 6	;RP1=0, select bank1
  1913  01F4  0849               	movf	(_Kp+1)^080h,w
  1914  01F5  1283               	bcf	status, 5	;RP0=0, select bank0
  1915  01F6  1303               	bcf	status, 6	;RP1=0, select bank0
  1916  01F7  00B6               	movwf	(?___ftmul+1)
  1917  01F8  1683               	bsf	status, 5	;RP0=1, select bank1
  1918  01F9  1303               	bcf	status, 6	;RP1=0, select bank1
  1919  01FA  084A               	movf	(_Kp+2)^080h,w
  1920  01FB  1283               	bcf	status, 5	;RP0=0, select bank0
  1921  01FC  1303               	bcf	status, 6	;RP1=0, select bank0
  1922  01FD  00B7               	movwf	(?___ftmul+2)
  1923  01FE  120A  118A  203F   	fcall	___ftmul
              120A  118A         
  1924  0203  1283               	bcf	status, 5	;RP0=0, select bank0
  1925  0204  1303               	bcf	status, 6	;RP1=0, select bank0
  1926  0205  0835               	movf	(0+(?___ftmul)),w
  1927  0206  00C8               	movwf	0+(?___ftadd)+03h
  1928  0207  0836               	movf	(1+(?___ftmul)),w
  1929  0208  00C9               	movwf	1+(?___ftadd)+03h
  1930  0209  0837               	movf	(2+(?___ftmul)),w
  1931  020A  00CA               	movwf	2+(?___ftadd)+03h
  1932  020B  1683               	bsf	status, 5	;RP0=1, select bank1
  1933  020C  1303               	bcf	status, 6	;RP1=0, select bank1
  1934  020D  0829               	movf	(_integral+1)^080h,w
  1935  020E  1283               	bcf	status, 5	;RP0=0, select bank0
  1936  020F  1303               	bcf	status, 6	;RP1=0, select bank0
  1937  0210  01AF               	clrf	(?___awtoft+1)
  1938  0211  07AF               	addwf	(?___awtoft+1)
  1939  0212  1683               	bsf	status, 5	;RP0=1, select bank1
  1940  0213  1303               	bcf	status, 6	;RP1=0, select bank1
  1941  0214  0828               	movf	(_integral)^080h,w
  1942  0215  1283               	bcf	status, 5	;RP0=0, select bank0
  1943  0216  1303               	bcf	status, 6	;RP1=0, select bank0
  1944  0217  01AE               	clrf	(?___awtoft)
  1945  0218  07AE               	addwf	(?___awtoft)
  1946                           
  1947  0219  120A  158A  227A   	fcall	___awtoft
              120A  118A         
  1948  021E  1283               	bcf	status, 5	;RP0=0, select bank0
  1949  021F  1303               	bcf	status, 6	;RP1=0, select bank0
  1950  0220  082E               	movf	(0+(?___awtoft)),w
  1951  0221  00B8               	movwf	0+(?___ftmul)+03h
  1952  0222  082F               	movf	(1+(?___awtoft)),w
  1953  0223  00B9               	movwf	1+(?___ftmul)+03h
  1954  0224  0830               	movf	(2+(?___awtoft)),w
  1955  0225  00BA               	movwf	2+(?___ftmul)+03h
  1956  0226  1683               	bsf	status, 5	;RP0=1, select bank1
  1957  0227  1303               	bcf	status, 6	;RP1=0, select bank1
  1958  0228  0845               	movf	(_Ki)^080h,w
  1959  0229  1283               	bcf	status, 5	;RP0=0, select bank0
  1960  022A  1303               	bcf	status, 6	;RP1=0, select bank0
  1961  022B  00B5               	movwf	(?___ftmul)
  1962  022C  1683               	bsf	status, 5	;RP0=1, select bank1
  1963  022D  1303               	bcf	status, 6	;RP1=0, select bank1
  1964  022E  0846               	movf	(_Ki+1)^080h,w
  1965  022F  1283               	bcf	status, 5	;RP0=0, select bank0
  1966  0230  1303               	bcf	status, 6	;RP1=0, select bank0
  1967  0231  00B6               	movwf	(?___ftmul+1)
  1968  0232  1683               	bsf	status, 5	;RP0=1, select bank1
  1969  0233  1303               	bcf	status, 6	;RP1=0, select bank1
  1970  0234  0847               	movf	(_Ki+2)^080h,w
  1971  0235  1283               	bcf	status, 5	;RP0=0, select bank0
  1972  0236  1303               	bcf	status, 6	;RP1=0, select bank0
  1973  0237  00B7               	movwf	(?___ftmul+2)
  1974  0238  120A  118A  203F   	fcall	___ftmul
              120A  118A         
  1975  023D  1283               	bcf	status, 5	;RP0=0, select bank0
  1976  023E  1303               	bcf	status, 6	;RP1=0, select bank0
  1977  023F  0835               	movf	(0+(?___ftmul)),w
  1978  0240  00C5               	movwf	(?___ftadd)
  1979  0241  0836               	movf	(1+(?___ftmul)),w
  1980  0242  00C6               	movwf	(?___ftadd+1)
  1981  0243  0837               	movf	(2+(?___ftmul)),w
  1982  0244  00C7               	movwf	(?___ftadd+2)
  1983  0245  120A  158A  26BA   	fcall	___ftadd
              120A  118A         
  1984  024A  1283               	bcf	status, 5	;RP0=0, select bank0
  1985  024B  1303               	bcf	status, 6	;RP1=0, select bank0
  1986  024C  0845               	movf	(0+(?___ftadd)),w
  1987  024D  00C8               	movwf	0+(?___ftadd)+03h
  1988  024E  0846               	movf	(1+(?___ftadd)),w
  1989  024F  00C9               	movwf	1+(?___ftadd)+03h
  1990  0250  0847               	movf	(2+(?___ftadd)),w
  1991  0251  00CA               	movwf	2+(?___ftadd)+03h
  1992  0252  1683               	bsf	status, 5	;RP0=1, select bank1
  1993  0253  1303               	bcf	status, 6	;RP1=0, select bank1
  1994  0254  0827               	movf	(_derivative+1)^080h,w
  1995  0255  1283               	bcf	status, 5	;RP0=0, select bank0
  1996  0256  1303               	bcf	status, 6	;RP1=0, select bank0
  1997  0257  01AF               	clrf	(?___awtoft+1)
  1998  0258  07AF               	addwf	(?___awtoft+1)
  1999  0259  1683               	bsf	status, 5	;RP0=1, select bank1
  2000  025A  1303               	bcf	status, 6	;RP1=0, select bank1
  2001  025B  0826               	movf	(_derivative)^080h,w
  2002  025C  1283               	bcf	status, 5	;RP0=0, select bank0
  2003  025D  1303               	bcf	status, 6	;RP1=0, select bank0
  2004  025E  01AE               	clrf	(?___awtoft)
  2005  025F  07AE               	addwf	(?___awtoft)
  2006                           
  2007  0260  120A  158A  227A   	fcall	___awtoft
              120A  118A         
  2008  0265  1283               	bcf	status, 5	;RP0=0, select bank0
  2009  0266  1303               	bcf	status, 6	;RP1=0, select bank0
  2010  0267  082E               	movf	(0+(?___awtoft)),w
  2011  0268  00B8               	movwf	0+(?___ftmul)+03h
  2012  0269  082F               	movf	(1+(?___awtoft)),w
  2013  026A  00B9               	movwf	1+(?___ftmul)+03h
  2014  026B  0830               	movf	(2+(?___awtoft)),w
  2015  026C  00BA               	movwf	2+(?___ftmul)+03h
  2016  026D  1683               	bsf	status, 5	;RP0=1, select bank1
  2017  026E  1303               	bcf	status, 6	;RP1=0, select bank1
  2018  026F  0842               	movf	(_Kd)^080h,w
  2019  0270  1283               	bcf	status, 5	;RP0=0, select bank0
  2020  0271  1303               	bcf	status, 6	;RP1=0, select bank0
  2021  0272  00B5               	movwf	(?___ftmul)
  2022  0273  1683               	bsf	status, 5	;RP0=1, select bank1
  2023  0274  1303               	bcf	status, 6	;RP1=0, select bank1
  2024  0275  0843               	movf	(_Kd+1)^080h,w
  2025  0276  1283               	bcf	status, 5	;RP0=0, select bank0
  2026  0277  1303               	bcf	status, 6	;RP1=0, select bank0
  2027  0278  00B6               	movwf	(?___ftmul+1)
  2028  0279  1683               	bsf	status, 5	;RP0=1, select bank1
  2029  027A  1303               	bcf	status, 6	;RP1=0, select bank1
  2030  027B  0844               	movf	(_Kd+2)^080h,w
  2031  027C  1283               	bcf	status, 5	;RP0=0, select bank0
  2032  027D  1303               	bcf	status, 6	;RP1=0, select bank0
  2033  027E  00B7               	movwf	(?___ftmul+2)
  2034  027F  120A  118A  203F   	fcall	___ftmul
              120A  118A         
  2035  0284  1283               	bcf	status, 5	;RP0=0, select bank0
  2036  0285  1303               	bcf	status, 6	;RP1=0, select bank0
  2037  0286  0835               	movf	(0+(?___ftmul)),w
  2038  0287  00C5               	movwf	(?___ftadd)
  2039  0288  0836               	movf	(1+(?___ftmul)),w
  2040  0289  00C6               	movwf	(?___ftadd+1)
  2041  028A  0837               	movf	(2+(?___ftmul)),w
  2042  028B  00C7               	movwf	(?___ftadd+2)
  2043  028C  120A  158A  26BA   	fcall	___ftadd
              120A  118A         
  2044  0291  1283               	bcf	status, 5	;RP0=0, select bank0
  2045  0292  1303               	bcf	status, 6	;RP1=0, select bank0
  2046  0293  0845               	movf	(0+(?___ftadd)),w
  2047  0294  00A0               	movwf	(?___fttol)
  2048  0295  0846               	movf	(1+(?___ftadd)),w
  2049  0296  00A1               	movwf	(?___fttol+1)
  2050  0297  0847               	movf	(2+(?___ftadd)),w
  2051  0298  00A2               	movwf	(?___fttol+2)
  2052  0299  120A  158A  2614   	fcall	___fttol
              120A  118A         
  2053  029E  1283               	bcf	status, 5	;RP0=0, select bank0
  2054  029F  1303               	bcf	status, 6	;RP1=0, select bank0
  2055  02A0  0821               	movf	1+(((0+(?___fttol)))),w
  2056  02A1  1683               	bsf	status, 5	;RP0=1, select bank1
  2057  02A2  1303               	bcf	status, 6	;RP1=0, select bank1
  2058  02A3  01AD               	clrf	(_m_diff+1)^080h
  2059  02A4  07AD               	addwf	(_m_diff+1)^080h
  2060  02A5  1283               	bcf	status, 5	;RP0=0, select bank0
  2061  02A6  1303               	bcf	status, 6	;RP1=0, select bank0
  2062  02A7  0820               	movf	0+(((0+(?___fttol)))),w
  2063  02A8  1683               	bsf	status, 5	;RP0=1, select bank1
  2064  02A9  1303               	bcf	status, 6	;RP1=0, select bank1
  2065  02AA  01AC               	clrf	(_m_diff)^080h
  2066  02AB  07AC               	addwf	(_m_diff)^080h
  2067                           
  2068                           	line	143
  2069                           	
  2070  02AC                     l5582:	
  2071                           ;Main.c: 143: leftspeed=200+m_diff;
  2072  02AC  082C               	movf	(_m_diff)^080h,w
  2073  02AD  3EC8               	addlw	low(0C8h)
  2074  02AE  00BE               	movwf	(main@leftspeed)^080h
  2075  02AF  082D               	movf	(_m_diff+1)^080h,w
  2076  02B0  1803               	skipnc
  2077  02B1  3E01               	addlw	1
  2078  02B2  3E00               	addlw	high(0C8h)
  2079  02B3  00BF               	movwf	1+(main@leftspeed)^080h
  2080                           	line	144
  2081                           	
  2082  02B4                     l5584:	
  2083                           ;Main.c: 144: if(leftspeed>255) leftspeed=255;
  2084  02B4  083F               	movf	(main@leftspeed+1)^080h,w
  2085  02B5  3A80               	xorlw	80h
  2086  02B6  00FF               	movwf	btemp+1
  2087  02B7  3081               	movlw	(high(0100h))^80h
  2088  02B8  027F               	subwf	btemp+1,w
  2089  02B9  1D03               	skipz
  2090  02BA  2ABD               	goto	u4095
  2091  02BB  3000               	movlw	low(0100h)
  2092  02BC  023E               	subwf	(main@leftspeed)^080h,w
  2093  02BD                     u4095:
  2094                           
  2095  02BD  1C03               	skipc
  2096  02BE  2AC0               	goto	u4091
  2097  02BF  2AC1               	goto	u4090
  2098  02C0                     u4091:
  2099  02C0  2AC8               	goto	l1145
  2100  02C1                     u4090:
  2101                           	
  2102  02C1                     l5586:	
  2103  02C1  30FF               	movlw	low(0FFh)
  2104  02C2  1683               	bsf	status, 5	;RP0=1, select bank1
  2105  02C3  1303               	bcf	status, 6	;RP1=0, select bank1
  2106  02C4  00BE               	movwf	(main@leftspeed)^080h
  2107  02C5  3000               	movlw	high(0FFh)
  2108  02C6  00BF               	movwf	((main@leftspeed)^080h)+1
  2109  02C7  2AD2               	goto	l5590
  2110                           	line	145
  2111                           	
  2112  02C8                     l1145:	
  2113                           ;Main.c: 145: else if(leftspeed<0) leftspeed=0;
  2114  02C8  1683               	bsf	status, 5	;RP0=1, select bank1
  2115  02C9  1303               	bcf	status, 6	;RP1=0, select bank1
  2116  02CA  1FBF               	btfss	(main@leftspeed+1)^080h,7
  2117  02CB  2ACD               	goto	u4101
  2118  02CC  2ACE               	goto	u4100
  2119  02CD                     u4101:
  2120  02CD  2AD2               	goto	l5590
  2121  02CE                     u4100:
  2122                           	
  2123  02CE                     l5588:	
  2124  02CE  01BE               	clrf	(main@leftspeed)^080h
  2125  02CF  01BF               	clrf	(main@leftspeed+1)^080h
  2126  02D0  2AD2               	goto	l5590
  2127                           	
  2128  02D1                     l1147:	
  2129  02D1  2AD2               	goto	l5590
  2130                           	line	147
  2131                           	
  2132  02D2                     l1146:	
  2133                           	
  2134  02D2                     l5590:	
  2135                           ;Main.c: 147: rightspeed=200-m_diff;
  2136  02D2  092C               	comf	(_m_diff)^080h,w
  2137  02D3  00B9               	movwf	(??_main+0)^080h+0
  2138  02D4  092D               	comf	(_m_diff+1)^080h,w
  2139  02D5  00BA               	movwf	((??_main+0)^080h+0+1)
  2140  02D6  0AB9               	incf	(??_main+0)^080h+0,f
  2141  02D7  1903               	skipnz
  2142  02D8  0ABA               	incf	((??_main+0)^080h+0+1),f
  2143  02D9  0839               	movf	0+(??_main+0)^080h+0,w
  2144  02DA  3EC8               	addlw	low(0C8h)
  2145  02DB  00C0               	movwf	(main@rightspeed)^080h
  2146  02DC  083A               	movf	1+(??_main+0)^080h+0,w
  2147  02DD  1803               	skipnc
  2148  02DE  3E01               	addlw	1
  2149  02DF  3E00               	addlw	high(0C8h)
  2150  02E0  00C1               	movwf	1+(main@rightspeed)^080h
  2151                           	line	148
  2152                           	
  2153  02E1                     l5592:	
  2154                           ;Main.c: 148: if(rightspeed>255) rightspeed=255;
  2155  02E1  0841               	movf	(main@rightspeed+1)^080h,w
  2156  02E2  3A80               	xorlw	80h
  2157  02E3  00FF               	movwf	btemp+1
  2158  02E4  3081               	movlw	(high(0100h))^80h
  2159  02E5  027F               	subwf	btemp+1,w
  2160  02E6  1D03               	skipz
  2161  02E7  2AEA               	goto	u4115
  2162  02E8  3000               	movlw	low(0100h)
  2163  02E9  0240               	subwf	(main@rightspeed)^080h,w
  2164  02EA                     u4115:
  2165                           
  2166  02EA  1C03               	skipc
  2167  02EB  2AED               	goto	u4111
  2168  02EC  2AEE               	goto	u4110
  2169  02ED                     u4111:
  2170  02ED  2AF5               	goto	l1148
  2171  02EE                     u4110:
  2172                           	
  2173  02EE                     l5594:	
  2174  02EE  30FF               	movlw	low(0FFh)
  2175  02EF  1683               	bsf	status, 5	;RP0=1, select bank1
  2176  02F0  1303               	bcf	status, 6	;RP1=0, select bank1
  2177  02F1  00C0               	movwf	(main@rightspeed)^080h
  2178  02F2  3000               	movlw	high(0FFh)
  2179  02F3  00C1               	movwf	((main@rightspeed)^080h)+1
  2180  02F4  2AFF               	goto	l5598
  2181                           	line	149
  2182                           	
  2183  02F5                     l1148:	
  2184                           ;Main.c: 149: else if(rightspeed<0) rightspeed=0;
  2185  02F5  1683               	bsf	status, 5	;RP0=1, select bank1
  2186  02F6  1303               	bcf	status, 6	;RP1=0, select bank1
  2187  02F7  1FC1               	btfss	(main@rightspeed+1)^080h,7
  2188  02F8  2AFA               	goto	u4121
  2189  02F9  2AFB               	goto	u4120
  2190  02FA                     u4121:
  2191  02FA  2AFF               	goto	l5598
  2192  02FB                     u4120:
  2193                           	
  2194  02FB                     l5596:	
  2195  02FB  01C0               	clrf	(main@rightspeed)^080h
  2196  02FC  01C1               	clrf	(main@rightspeed+1)^080h
  2197  02FD  2AFF               	goto	l5598
  2198                           	
  2199  02FE                     l1150:	
  2200  02FE  2AFF               	goto	l5598
  2201                           	line	152
  2202                           	
  2203  02FF                     l1149:	
  2204                           	
  2205  02FF                     l5598:	
  2206                           ;Main.c: 152: RC0=0;; RC3=1;;;
  2207  02FF  1283               	bcf	status, 5	;RP0=0, select bank0
  2208  0300  1303               	bcf	status, 6	;RP1=0, select bank0
  2209  0301  1007               	bcf	(56/8),(56)&7
  2210                           	
  2211  0302                     l5600:	
  2212  0302  1587               	bsf	(59/8),(59)&7
  2213                           	line	153
  2214                           	
  2215  0303                     l5602:	
  2216                           ;Main.c: 153: motorspeed((unsigned char)leftspeed, (unsigned char)rightspeed);
  2217  0303  1683               	bsf	status, 5	;RP0=1, select bank1
  2218  0304  1303               	bcf	status, 6	;RP1=0, select bank1
  2219  0305  0840               	movf	(main@rightspeed)^080h,w
  2220  0306  00B9               	movwf	(??_main+0)^080h+0
  2221  0307  0839               	movf	(??_main+0)^080h+0,w
  2222  0308  00F1               	movwf	(?_motorspeed)
  2223  0309  083E               	movf	(main@leftspeed)^080h,w
  2224  030A  120A  158A  208B   	fcall	_motorspeed
              120A  118A         
  2225  030F  29C1               	goto	l5576
  2226                           	line	156
  2227                           	
  2228  0310                     l1151:	
  2229                           	line	132
  2230  0310  29C1               	goto	l5576
  2231                           	
  2232  0311                     l1152:	
  2233                           	line	158
  2234                           	
  2235  0311                     l5604:	
  2236                           ;Main.c: 156: }
  2237                           ;Main.c: 158: motorspeed(0,0);;
  2238  0311  01F1               	clrf	(?_motorspeed)
  2239  0312  3000               	movlw	(0)
  2240  0313  120A  158A  208B   	fcall	_motorspeed
              120A  118A         
  2241                           	line	161
  2242                           	
  2243  0318                     l1153:	
  2244                           	global	start
  2245  0318  120A  118A  2800   	ljmp	start
  2246                           	opt stack 0
  2247                           GLOBAL	__end_of_main
  2248  031B                     	__end_of_main:
  2249 ;; =============== function _main ends ============
  2250                           
  2251                           	signat	_main,88
  2252                           	global	_PID_MENU
  2253                           psect	text795,local,class=CODE,delta=2
  2254                           global __ptext795
  2255  031B                     __ptext795:
  2256                           
  2257 ;; *************** function _PID_MENU *****************
  2258 ;; Defined at:
  2259 ;;		line 165 in file "Main.c"
  2260 ;; Parameters:    Size  Location     Type
  2261 ;;		None
  2262 ;; Auto vars:     Size  Location     Type
  2263 ;;  count           4    0[BANK1 ] unsigned long 
  2264 ;;  kval            1    4[BANK1 ] unsigned char 
  2265 ;; Return value:  Size  Location     Type
  2266 ;;		None               void
  2267 ;; Registers used:
  2268 ;;		wreg, fsr0l, fsr0h, status,2, status,0, btemp+1, pclath, cstack
  2269 ;; Tracked objects:
  2270 ;;		On entry : 0/0
  2271 ;;		On exit  : 0/0
  2272 ;;		Unchanged: 0/0
  2273 ;; Data sizes:     COMMON   BANK0   BANK1   BANK3   BANK2
  2274 ;;      Params:         0       0       0       0       0
  2275 ;;      Locals:         0       0       5       0       0
  2276 ;;      Temps:          0       3       0       0       0
  2277 ;;      Totals:         0       3       5       0       0
  2278 ;;Total ram usage:        8 bytes
  2279 ;; Hardware stack levels used:    1
  2280 ;; Hardware stack levels required when called:    4
  2281 ;; This function calls:
  2282 ;;		_lcd_goto
  2283 ;;		_send_string
  2284 ;;		___fttol
  2285 ;;		_lcd_num
  2286 ;;		_send_char
  2287 ;;		___lbtoft
  2288 ;;		___ftneg
  2289 ;;		___ftadd
  2290 ;;		___ftmul
  2291 ;;		___ftge
  2292 ;;		___ftsub
  2293 ;; This function is called by:
  2294 ;;		_main
  2295 ;; This function uses a non-reentrant model
  2296 ;;
  2297                           psect	text795
  2298                           	file	"Main.c"
  2299                           	line	165
  2300                           	global	__size_of_PID_MENU
  2301  04E5                     	__size_of_PID_MENU	equ	__end_of_PID_MENU-_PID_MENU
  2302                           	
  2303  031B                     _PID_MENU:	
  2304                           	opt	stack 3
  2305                           ; Regs used in _PID_MENU: [wreg-fsr0h+status,2+status,0+btemp+1+pclath+cstack]
  2306                           	line	168
  2307                           	
  2308  031B                     l5452:	
  2309                           ;Main.c: 167: unsigned char kval;
  2310                           ;Main.c: 168: unsigned long count=0;
  2311  031B  3000               	movlw	0
  2312  031C  1683               	bsf	status, 5	;RP0=1, select bank1
  2313  031D  1303               	bcf	status, 6	;RP1=0, select bank1
  2314  031E  00B7               	movwf	(PID_MENU@count+3)^080h
  2315  031F  3000               	movlw	0
  2316  0320  00B6               	movwf	(PID_MENU@count+2)^080h
  2317  0321  3000               	movlw	0
  2318  0322  00B5               	movwf	(PID_MENU@count+1)^080h
  2319  0323  3000               	movlw	0
  2320  0324  00B4               	movwf	(PID_MENU@count)^080h
  2321                           
  2322  0325  2B26               	goto	l5454
  2323                           	line	171
  2324                           ;Main.c: 171: while(1){
  2325                           	
  2326  0326                     l1156:	
  2327                           	line	172
  2328                           	
  2329  0326                     l5454:	
  2330                           ;Main.c: 172: lcd_goto(0);
  2331  0326  3000               	movlw	(0)
  2332  0327  120A  158A  2146   	fcall	_lcd_goto
              120A  118A         
  2333                           	line	173
  2334                           	
  2335  032C                     l5456:	
  2336                           ;Main.c: 173: send_string("Kp   Ki   Kd  ");
  2337  032C  3001               	movlw	low((STR_4-__stringbase))
  2338  032D  00F9               	movwf	(?_send_string)
  2339  032E  3080               	movlw	80h
  2340  032F  00FA               	movwf	(?_send_string+1)
  2341  0330  120A  158A  2302   	fcall	_send_string
              120A  118A         
  2342                           	line	174
  2343                           	
  2344  0335                     l5458:	
  2345                           ;Main.c: 174: lcd_goto(20);
  2346  0335  3014               	movlw	(014h)
  2347  0336  120A  158A  2146   	fcall	_lcd_goto
              120A  118A         
  2348                           	line	175
  2349                           	
  2350  033B                     l5460:	
  2351                           ;Main.c: 175: kval=(unsigned char)Kp;
  2352  033B  1683               	bsf	status, 5	;RP0=1, select bank1
  2353  033C  1303               	bcf	status, 6	;RP1=0, select bank1
  2354  033D  0848               	movf	(_Kp)^080h,w
  2355  033E  1283               	bcf	status, 5	;RP0=0, select bank0
  2356  033F  1303               	bcf	status, 6	;RP1=0, select bank0
  2357  0340  00A0               	movwf	(?___fttol)
  2358  0341  1683               	bsf	status, 5	;RP0=1, select bank1
  2359  0342  1303               	bcf	status, 6	;RP1=0, select bank1
  2360  0343  0849               	movf	(_Kp+1)^080h,w
  2361  0344  1283               	bcf	status, 5	;RP0=0, select bank0
  2362  0345  1303               	bcf	status, 6	;RP1=0, select bank0
  2363  0346  00A1               	movwf	(?___fttol+1)
  2364  0347  1683               	bsf	status, 5	;RP0=1, select bank1
  2365  0348  1303               	bcf	status, 6	;RP1=0, select bank1
  2366  0349  084A               	movf	(_Kp+2)^080h,w
  2367  034A  1283               	bcf	status, 5	;RP0=0, select bank0
  2368  034B  1303               	bcf	status, 6	;RP1=0, select bank0
  2369  034C  00A2               	movwf	(?___fttol+2)
  2370  034D  120A  158A  2614   	fcall	___fttol
              120A  118A         
  2371  0352  1283               	bcf	status, 5	;RP0=0, select bank0
  2372  0353  1303               	bcf	status, 6	;RP1=0, select bank0
  2373  0354  0820               	movf	0+(((0+(?___fttol)))),w
  2374  0355  00EC               	movwf	(??_PID_MENU+0)+0
  2375  0356  086C               	movf	(??_PID_MENU+0)+0,w
  2376  0357  1683               	bsf	status, 5	;RP0=1, select bank1
  2377  0358  1303               	bcf	status, 6	;RP1=0, select bank1
  2378  0359  00B8               	movwf	(PID_MENU@kval)^080h
  2379                           	line	176
  2380                           	
  2381  035A                     l5462:	
  2382                           ;Main.c: 176: lcd_num(kval,1); send_char('.');
  2383  035A  0838               	movf	(PID_MENU@kval)^080h,w
  2384  035B  1283               	bcf	status, 5	;RP0=0, select bank0
  2385  035C  1303               	bcf	status, 6	;RP1=0, select bank0
  2386  035D  00EC               	movwf	(??_PID_MENU+0)+0
  2387  035E  01ED               	clrf	(??_PID_MENU+0)+0+1
  2388  035F  086C               	movf	0+(??_PID_MENU+0)+0,w
  2389  0360  00D2               	movwf	(?_lcd_num)
  2390  0361  086D               	movf	1+(??_PID_MENU+0)+0,w
  2391  0362  00D3               	movwf	(?_lcd_num+1)
  2392  0363  01D4               	clrf	0+(?_lcd_num)+02h
  2393  0364  1403               	bsf	status,0
  2394  0365  0DD4               	rlf	0+(?_lcd_num)+02h,f
  2395  0366  120A  158A  2586   	fcall	_lcd_num
              120A  118A         
  2396                           	
  2397  036B                     l5464:	
  2398  036B  302E               	movlw	(02Eh)
  2399  036C  120A  158A  21E2   	fcall	_send_char
              120A  118A         
  2400                           	line	177
  2401                           	
  2402  0371                     l5466:	
  2403                           ;Main.c: 177: lcd_num((Kp-(float)kval)*100,2); send_char(' ');
  2404  0371  1683               	bsf	status, 5	;RP0=1, select bank1
  2405  0372  1303               	bcf	status, 6	;RP1=0, select bank1
  2406  0373  0838               	movf	(PID_MENU@kval)^080h,w
  2407  0374  120A  158A  21C1   	fcall	___lbtoft
              120A  118A         
  2408  0379  1283               	bcf	status, 5	;RP0=0, select bank0
  2409  037A  1303               	bcf	status, 6	;RP1=0, select bank0
  2410  037B  082E               	movf	(0+(?___lbtoft)),w
  2411  037C  00F8               	movwf	(?___ftneg)
  2412  037D  082F               	movf	(1+(?___lbtoft)),w
  2413  037E  00F9               	movwf	(?___ftneg+1)
  2414  037F  0830               	movf	(2+(?___lbtoft)),w
  2415  0380  00FA               	movwf	(?___ftneg+2)
  2416  0381  120A  158A  2071   	fcall	___ftneg
              120A  118A         
  2417  0386  0878               	movf	(0+(?___ftneg)),w
  2418  0387  1283               	bcf	status, 5	;RP0=0, select bank0
  2419  0388  1303               	bcf	status, 6	;RP1=0, select bank0
  2420  0389  00C8               	movwf	0+(?___ftadd)+03h
  2421  038A  0879               	movf	(1+(?___ftneg)),w
  2422  038B  00C9               	movwf	1+(?___ftadd)+03h
  2423  038C  087A               	movf	(2+(?___ftneg)),w
  2424  038D  00CA               	movwf	2+(?___ftadd)+03h
  2425  038E  1683               	bsf	status, 5	;RP0=1, select bank1
  2426  038F  1303               	bcf	status, 6	;RP1=0, select bank1
  2427  0390  0848               	movf	(_Kp)^080h,w
  2428  0391  1283               	bcf	status, 5	;RP0=0, select bank0
  2429  0392  1303               	bcf	status, 6	;RP1=0, select bank0
  2430  0393  00C5               	movwf	(?___ftadd)
  2431  0394  1683               	bsf	status, 5	;RP0=1, select bank1
  2432  0395  1303               	bcf	status, 6	;RP1=0, select bank1
  2433  0396  0849               	movf	(_Kp+1)^080h,w
  2434  0397  1283               	bcf	status, 5	;RP0=0, select bank0
  2435  0398  1303               	bcf	status, 6	;RP1=0, select bank0
  2436  0399  00C6               	movwf	(?___ftadd+1)
  2437  039A  1683               	bsf	status, 5	;RP0=1, select bank1
  2438  039B  1303               	bcf	status, 6	;RP1=0, select bank1
  2439  039C  084A               	movf	(_Kp+2)^080h,w
  2440  039D  1283               	bcf	status, 5	;RP0=0, select bank0
  2441  039E  1303               	bcf	status, 6	;RP1=0, select bank0
  2442  039F  00C7               	movwf	(?___ftadd+2)
  2443  03A0  120A  158A  26BA   	fcall	___ftadd
              120A  118A         
  2444  03A5  1283               	bcf	status, 5	;RP0=0, select bank0
  2445  03A6  1303               	bcf	status, 6	;RP1=0, select bank0
  2446  03A7  0845               	movf	(0+(?___ftadd)),w
  2447  03A8  00B8               	movwf	0+(?___ftmul)+03h
  2448  03A9  0846               	movf	(1+(?___ftadd)),w
  2449  03AA  00B9               	movwf	1+(?___ftmul)+03h
  2450  03AB  0847               	movf	(2+(?___ftadd)),w
  2451  03AC  00BA               	movwf	2+(?___ftmul)+03h
  2452  03AD  3000               	movlw	0x0
  2453  03AE  00B5               	movwf	(?___ftmul)
  2454  03AF  30C8               	movlw	0xc8
  2455  03B0  00B6               	movwf	(?___ftmul+1)
  2456  03B1  3042               	movlw	0x42
  2457  03B2  00B7               	movwf	(?___ftmul+2)
  2458  03B3  120A  118A  203F   	fcall	___ftmul
              120A  118A         
  2459  03B8  1283               	bcf	status, 5	;RP0=0, select bank0
  2460  03B9  1303               	bcf	status, 6	;RP1=0, select bank0
  2461  03BA  0835               	movf	(0+(?___ftmul)),w
  2462  03BB  00A0               	movwf	(?___fttol)
  2463  03BC  0836               	movf	(1+(?___ftmul)),w
  2464  03BD  00A1               	movwf	(?___fttol+1)
  2465  03BE  0837               	movf	(2+(?___ftmul)),w
  2466  03BF  00A2               	movwf	(?___fttol+2)
  2467  03C0  120A  158A  2614   	fcall	___fttol
              120A  118A         
  2468  03C5  1283               	bcf	status, 5	;RP0=0, select bank0
  2469  03C6  1303               	bcf	status, 6	;RP1=0, select bank0
  2470  03C7  0821               	movf	1+(((0+(?___fttol)))),w
  2471  03C8  01D3               	clrf	(?_lcd_num+1)
  2472  03C9  07D3               	addwf	(?_lcd_num+1)
  2473  03CA  0820               	movf	0+(((0+(?___fttol)))),w
  2474  03CB  01D2               	clrf	(?_lcd_num)
  2475  03CC  07D2               	addwf	(?_lcd_num)
  2476                           
  2477  03CD  3002               	movlw	(02h)
  2478  03CE  00EC               	movwf	(??_PID_MENU+0)+0
  2479  03CF  086C               	movf	(??_PID_MENU+0)+0,w
  2480  03D0  00D4               	movwf	0+(?_lcd_num)+02h
  2481  03D1  120A  158A  2586   	fcall	_lcd_num
              120A  118A         
  2482                           	
  2483  03D6                     l5468:	
  2484  03D6  3020               	movlw	(020h)
  2485  03D7  120A  158A  21E2   	fcall	_send_char
              120A  118A         
  2486                           	line	179
  2487                           	
  2488  03DC                     l5470:	
  2489                           ;Main.c: 179: kval=(unsigned char)Ki;
  2490  03DC  1683               	bsf	status, 5	;RP0=1, select bank1
  2491  03DD  1303               	bcf	status, 6	;RP1=0, select bank1
  2492  03DE  0845               	movf	(_Ki)^080h,w
  2493  03DF  1283               	bcf	status, 5	;RP0=0, select bank0
  2494  03E0  1303               	bcf	status, 6	;RP1=0, select bank0
  2495  03E1  00A0               	movwf	(?___fttol)
  2496  03E2  1683               	bsf	status, 5	;RP0=1, select bank1
  2497  03E3  1303               	bcf	status, 6	;RP1=0, select bank1
  2498  03E4  0846               	movf	(_Ki+1)^080h,w
  2499  03E5  1283               	bcf	status, 5	;RP0=0, select bank0
  2500  03E6  1303               	bcf	status, 6	;RP1=0, select bank0
  2501  03E7  00A1               	movwf	(?___fttol+1)
  2502  03E8  1683               	bsf	status, 5	;RP0=1, select bank1
  2503  03E9  1303               	bcf	status, 6	;RP1=0, select bank1
  2504  03EA  0847               	movf	(_Ki+2)^080h,w
  2505  03EB  1283               	bcf	status, 5	;RP0=0, select bank0
  2506  03EC  1303               	bcf	status, 6	;RP1=0, select bank0
  2507  03ED  00A2               	movwf	(?___fttol+2)
  2508  03EE  120A  158A  2614   	fcall	___fttol
              120A  118A         
  2509  03F3  1283               	bcf	status, 5	;RP0=0, select bank0
  2510  03F4  1303               	bcf	status, 6	;RP1=0, select bank0
  2511  03F5  0820               	movf	0+(((0+(?___fttol)))),w
  2512  03F6  00EC               	movwf	(??_PID_MENU+0)+0
  2513  03F7  086C               	movf	(??_PID_MENU+0)+0,w
  2514  03F8  1683               	bsf	status, 5	;RP0=1, select bank1
  2515  03F9  1303               	bcf	status, 6	;RP1=0, select bank1
  2516  03FA  00B8               	movwf	(PID_MENU@kval)^080h
  2517                           	line	180
  2518                           	
  2519  03FB                     l5472:	
  2520                           ;Main.c: 180: lcd_num(kval,1); send_char('.');
  2521  03FB  0838               	movf	(PID_MENU@kval)^080h,w
  2522  03FC  1283               	bcf	status, 5	;RP0=0, select bank0
  2523  03FD  1303               	bcf	status, 6	;RP1=0, select bank0
  2524  03FE  00EC               	movwf	(??_PID_MENU+0)+0
  2525  03FF  01ED               	clrf	(??_PID_MENU+0)+0+1
  2526  0400  086C               	movf	0+(??_PID_MENU+0)+0,w
  2527  0401  00D2               	movwf	(?_lcd_num)
  2528  0402  086D               	movf	1+(??_PID_MENU+0)+0,w
  2529  0403  00D3               	movwf	(?_lcd_num+1)
  2530  0404  01D4               	clrf	0+(?_lcd_num)+02h
  2531  0405  1403               	bsf	status,0
  2532  0406  0DD4               	rlf	0+(?_lcd_num)+02h,f
  2533  0407  120A  158A  2586   	fcall	_lcd_num
              120A  118A         
  2534                           	
  2535  040C                     l5474:	
  2536  040C  302E               	movlw	(02Eh)
  2537  040D  120A  158A  21E2   	fcall	_send_char
              120A  118A         
  2538                           	line	181
  2539                           	
  2540  0412                     l5476:	
  2541                           ;Main.c: 181: if((Ki-(float)kval)*100<10) send_char('0');
  2542  0412  3000               	movlw	0x0
  2543  0413  1283               	bcf	status, 5	;RP0=0, select bank0
  2544  0414  1303               	bcf	status, 6	;RP1=0, select bank0
  2545  0415  00B5               	movwf	(?___ftmul)
  2546  0416  30C8               	movlw	0xc8
  2547  0417  00B6               	movwf	(?___ftmul+1)
  2548  0418  3042               	movlw	0x42
  2549  0419  00B7               	movwf	(?___ftmul+2)
  2550  041A  1683               	bsf	status, 5	;RP0=1, select bank1
  2551  041B  1303               	bcf	status, 6	;RP1=0, select bank1
  2552  041C  0845               	movf	(_Ki)^080h,w
  2553  041D  1283               	bcf	status, 5	;RP0=0, select bank0
  2554  041E  1303               	bcf	status, 6	;RP1=0, select bank0
  2555  041F  00C5               	movwf	(?___ftadd)
  2556  0420  1683               	bsf	status, 5	;RP0=1, select bank1
  2557  0421  1303               	bcf	status, 6	;RP1=0, select bank1
  2558  0422  0846               	movf	(_Ki+1)^080h,w
  2559  0423  1283               	bcf	status, 5	;RP0=0, select bank0
  2560  0424  1303               	bcf	status, 6	;RP1=0, select bank0
  2561  0425  00C6               	movwf	(?___ftadd+1)
  2562  0426  1683               	bsf	status, 5	;RP0=1, select bank1
  2563  0427  1303               	bcf	status, 6	;RP1=0, select bank1
  2564  0428  0847               	movf	(_Ki+2)^080h,w
  2565  0429  1283               	bcf	status, 5	;RP0=0, select bank0
  2566  042A  1303               	bcf	status, 6	;RP1=0, select bank0
  2567  042B  00C7               	movwf	(?___ftadd+2)
  2568  042C  1683               	bsf	status, 5	;RP0=1, select bank1
  2569  042D  1303               	bcf	status, 6	;RP1=0, select bank1
  2570  042E  0838               	movf	(PID_MENU@kval)^080h,w
  2571  042F  120A  158A  21C1   	fcall	___lbtoft
              120A  118A         
  2572  0434  1283               	bcf	status, 5	;RP0=0, select bank0
  2573  0435  1303               	bcf	status, 6	;RP1=0, select bank0
  2574  0436  082E               	movf	(0+(?___lbtoft)),w
  2575  0437  00F8               	movwf	(?___ftneg)
  2576  0438  082F               	movf	(1+(?___lbtoft)),w
  2577  0439  00F9               	movwf	(?___ftneg+1)
  2578  043A  0830               	movf	(2+(?___lbtoft)),w
  2579  043B  00FA               	movwf	(?___ftneg+2)
  2580  043C  120A  158A  2071   	fcall	___ftneg
              120A  118A         
  2581  0441  0878               	movf	(0+(?___ftneg)),w
  2582  0442  1283               	bcf	status, 5	;RP0=0, select bank0
  2583  0443  1303               	bcf	status, 6	;RP1=0, select bank0
  2584  0444  00C8               	movwf	0+(?___ftadd)+03h
  2585  0445  0879               	movf	(1+(?___ftneg)),w
  2586  0446  00C9               	movwf	1+(?___ftadd)+03h
  2587  0447  087A               	movf	(2+(?___ftneg)),w
  2588  0448  00CA               	movwf	2+(?___ftadd)+03h
  2589  0449  120A  158A  26BA   	fcall	___ftadd
              120A  118A         
  2590  044E  1283               	bcf	status, 5	;RP0=0, select bank0
  2591  044F  1303               	bcf	status, 6	;RP1=0, select bank0
  2592  0450  0845               	movf	(0+(?___ftadd)),w
  2593  0451  00B8               	movwf	0+(?___ftmul)+03h
  2594  0452  0846               	movf	(1+(?___ftadd)),w
  2595  0453  00B9               	movwf	1+(?___ftmul)+03h
  2596  0454  0847               	movf	(2+(?___ftadd)),w
  2597  0455  00BA               	movwf	2+(?___ftmul)+03h
  2598  0456  120A  118A  203F   	fcall	___ftmul
              120A  118A         
  2599  045B  1283               	bcf	status, 5	;RP0=0, select bank0
  2600  045C  1303               	bcf	status, 6	;RP1=0, select bank0
  2601  045D  0835               	movf	(0+(?___ftmul)),w
  2602  045E  00A0               	movwf	(?___ftge)
  2603  045F  0836               	movf	(1+(?___ftmul)),w
  2604  0460  00A1               	movwf	(?___ftge+1)
  2605  0461  0837               	movf	(2+(?___ftmul)),w
  2606  0462  00A2               	movwf	(?___ftge+2)
  2607  0463  3000               	movlw	0x0
  2608  0464  00A3               	movwf	0+(?___ftge)+03h
  2609  0465  3020               	movlw	0x20
  2610  0466  00A4               	movwf	1+(?___ftge)+03h
  2611  0467  3041               	movlw	0x41
  2612  0468  00A5               	movwf	2+(?___ftge)+03h
  2613  0469  120A  158A  249D   	fcall	___ftge
              120A  118A         
  2614  046E  1803               	btfsc	status,0
  2615  046F  2C71               	goto	u3941
  2616  0470  2C72               	goto	u3940
  2617  0471                     u3941:
  2618  0471  2C79               	goto	l5480
  2619  0472                     u3940:
  2620                           	
  2621  0472                     l5478:	
  2622  0472  3030               	movlw	(030h)
  2623  0473  120A  158A  21E2   	fcall	_send_char
              120A  118A         
  2624  0478  2C79               	goto	l5480
  2625                           	
  2626  0479                     l1157:	
  2627                           	line	182
  2628                           	
  2629  0479                     l5480:	
  2630                           ;Main.c: 182: lcd_num((Ki-(float)kval)*100,2); send_char(' ');
  2631  0479  1683               	bsf	status, 5	;RP0=1, select bank1
  2632  047A  1303               	bcf	status, 6	;RP1=0, select bank1
  2633  047B  0838               	movf	(PID_MENU@kval)^080h,w
  2634  047C  120A  158A  21C1   	fcall	___lbtoft
              120A  118A         
  2635  0481  1283               	bcf	status, 5	;RP0=0, select bank0
  2636  0482  1303               	bcf	status, 6	;RP1=0, select bank0
  2637  0483  082E               	movf	(0+(?___lbtoft)),w
  2638  0484  00F8               	movwf	(?___ftneg)
  2639  0485  082F               	movf	(1+(?___lbtoft)),w
  2640  0486  00F9               	movwf	(?___ftneg+1)
  2641  0487  0830               	movf	(2+(?___lbtoft)),w
  2642  0488  00FA               	movwf	(?___ftneg+2)
  2643  0489  120A  158A  2071   	fcall	___ftneg
              120A  118A         
  2644  048E  0878               	movf	(0+(?___ftneg)),w
  2645  048F  1283               	bcf	status, 5	;RP0=0, select bank0
  2646  0490  1303               	bcf	status, 6	;RP1=0, select bank0
  2647  0491  00C8               	movwf	0+(?___ftadd)+03h
  2648  0492  0879               	movf	(1+(?___ftneg)),w
  2649  0493  00C9               	movwf	1+(?___ftadd)+03h
  2650  0494  087A               	movf	(2+(?___ftneg)),w
  2651  0495  00CA               	movwf	2+(?___ftadd)+03h
  2652  0496  1683               	bsf	status, 5	;RP0=1, select bank1
  2653  0497  1303               	bcf	status, 6	;RP1=0, select bank1
  2654  0498  0845               	movf	(_Ki)^080h,w
  2655  0499  1283               	bcf	status, 5	;RP0=0, select bank0
  2656  049A  1303               	bcf	status, 6	;RP1=0, select bank0
  2657  049B  00C5               	movwf	(?___ftadd)
  2658  049C  1683               	bsf	status, 5	;RP0=1, select bank1
  2659  049D  1303               	bcf	status, 6	;RP1=0, select bank1
  2660  049E  0846               	movf	(_Ki+1)^080h,w
  2661  049F  1283               	bcf	status, 5	;RP0=0, select bank0
  2662  04A0  1303               	bcf	status, 6	;RP1=0, select bank0
  2663  04A1  00C6               	movwf	(?___ftadd+1)
  2664  04A2  1683               	bsf	status, 5	;RP0=1, select bank1
  2665  04A3  1303               	bcf	status, 6	;RP1=0, select bank1
  2666  04A4  0847               	movf	(_Ki+2)^080h,w
  2667  04A5  1283               	bcf	status, 5	;RP0=0, select bank0
  2668  04A6  1303               	bcf	status, 6	;RP1=0, select bank0
  2669  04A7  00C7               	movwf	(?___ftadd+2)
  2670  04A8  120A  158A  26BA   	fcall	___ftadd
              120A  118A         
  2671  04AD  1283               	bcf	status, 5	;RP0=0, select bank0
  2672  04AE  1303               	bcf	status, 6	;RP1=0, select bank0
  2673  04AF  0845               	movf	(0+(?___ftadd)),w
  2674  04B0  00B8               	movwf	0+(?___ftmul)+03h
  2675  04B1  0846               	movf	(1+(?___ftadd)),w
  2676  04B2  00B9               	movwf	1+(?___ftmul)+03h
  2677  04B3  0847               	movf	(2+(?___ftadd)),w
  2678  04B4  00BA               	movwf	2+(?___ftmul)+03h
  2679  04B5  3000               	movlw	0x0
  2680  04B6  00B5               	movwf	(?___ftmul)
  2681  04B7  30C8               	movlw	0xc8
  2682  04B8  00B6               	movwf	(?___ftmul+1)
  2683  04B9  3042               	movlw	0x42
  2684  04BA  00B7               	movwf	(?___ftmul+2)
  2685  04BB  120A  118A  203F   	fcall	___ftmul
              120A  118A         
  2686  04C0  1283               	bcf	status, 5	;RP0=0, select bank0
  2687  04C1  1303               	bcf	status, 6	;RP1=0, select bank0
  2688  04C2  0835               	movf	(0+(?___ftmul)),w
  2689  04C3  00A0               	movwf	(?___fttol)
  2690  04C4  0836               	movf	(1+(?___ftmul)),w
  2691  04C5  00A1               	movwf	(?___fttol+1)
  2692  04C6  0837               	movf	(2+(?___ftmul)),w
  2693  04C7  00A2               	movwf	(?___fttol+2)
  2694  04C8  120A  158A  2614   	fcall	___fttol
              120A  118A         
  2695  04CD  1283               	bcf	status, 5	;RP0=0, select bank0
  2696  04CE  1303               	bcf	status, 6	;RP1=0, select bank0
  2697  04CF  0821               	movf	1+(((0+(?___fttol)))),w
  2698  04D0  01D3               	clrf	(?_lcd_num+1)
  2699  04D1  07D3               	addwf	(?_lcd_num+1)
  2700  04D2  0820               	movf	0+(((0+(?___fttol)))),w
  2701  04D3  01D2               	clrf	(?_lcd_num)
  2702  04D4  07D2               	addwf	(?_lcd_num)
  2703                           
  2704  04D5  3002               	movlw	(02h)
  2705  04D6  00EC               	movwf	(??_PID_MENU+0)+0
  2706  04D7  086C               	movf	(??_PID_MENU+0)+0,w
  2707  04D8  00D4               	movwf	0+(?_lcd_num)+02h
  2708  04D9  120A  158A  2586   	fcall	_lcd_num
              120A  118A         
  2709                           	
  2710  04DE                     l5482:	
  2711  04DE  3020               	movlw	(020h)
  2712  04DF  120A  158A  21E2   	fcall	_send_char
              120A  118A         
  2713                           	line	185
  2714                           	
  2715  04E4                     l5484:	
  2716                           ;Main.c: 185: kval=(unsigned char)Kd;
  2717  04E4  1683               	bsf	status, 5	;RP0=1, select bank1
  2718  04E5  1303               	bcf	status, 6	;RP1=0, select bank1
  2719  04E6  0842               	movf	(_Kd)^080h,w
  2720  04E7  1283               	bcf	status, 5	;RP0=0, select bank0
  2721  04E8  1303               	bcf	status, 6	;RP1=0, select bank0
  2722  04E9  00A0               	movwf	(?___fttol)
  2723  04EA  1683               	bsf	status, 5	;RP0=1, select bank1
  2724  04EB  1303               	bcf	status, 6	;RP1=0, select bank1
  2725  04EC  0843               	movf	(_Kd+1)^080h,w
  2726  04ED  1283               	bcf	status, 5	;RP0=0, select bank0
  2727  04EE  1303               	bcf	status, 6	;RP1=0, select bank0
  2728  04EF  00A1               	movwf	(?___fttol+1)
  2729  04F0  1683               	bsf	status, 5	;RP0=1, select bank1
  2730  04F1  1303               	bcf	status, 6	;RP1=0, select bank1
  2731  04F2  0844               	movf	(_Kd+2)^080h,w
  2732  04F3  1283               	bcf	status, 5	;RP0=0, select bank0
  2733  04F4  1303               	bcf	status, 6	;RP1=0, select bank0
  2734  04F5  00A2               	movwf	(?___fttol+2)
  2735  04F6  120A  158A  2614   	fcall	___fttol
              120A  118A         
  2736  04FB  1283               	bcf	status, 5	;RP0=0, select bank0
  2737  04FC  1303               	bcf	status, 6	;RP1=0, select bank0
  2738  04FD  0820               	movf	0+(((0+(?___fttol)))),w
  2739  04FE  00EC               	movwf	(??_PID_MENU+0)+0
  2740  04FF  086C               	movf	(??_PID_MENU+0)+0,w
  2741  0500  1683               	bsf	status, 5	;RP0=1, select bank1
  2742  0501  1303               	bcf	status, 6	;RP1=0, select bank1
  2743  0502  00B8               	movwf	(PID_MENU@kval)^080h
  2744                           	line	186
  2745                           	
  2746  0503                     l5486:	
  2747                           ;Main.c: 186: lcd_num(kval,2);
  2748  0503  0838               	movf	(PID_MENU@kval)^080h,w
  2749  0504  1283               	bcf	status, 5	;RP0=0, select bank0
  2750  0505  1303               	bcf	status, 6	;RP1=0, select bank0
  2751  0506  00EC               	movwf	(??_PID_MENU+0)+0
  2752  0507  01ED               	clrf	(??_PID_MENU+0)+0+1
  2753  0508  086C               	movf	0+(??_PID_MENU+0)+0,w
  2754  0509  00D2               	movwf	(?_lcd_num)
  2755  050A  086D               	movf	1+(??_PID_MENU+0)+0,w
  2756  050B  00D3               	movwf	(?_lcd_num+1)
  2757  050C  3002               	movlw	(02h)
  2758  050D  00EE               	movwf	(??_PID_MENU+2)+0
  2759  050E  086E               	movf	(??_PID_MENU+2)+0,w
  2760  050F  00D4               	movwf	0+(?_lcd_num)+02h
  2761  0510  120A  158A  2586   	fcall	_lcd_num
              120A  118A         
  2762                           	line	187
  2763                           ;Main.c: 187: send_char(' ');
  2764  0515  3020               	movlw	(020h)
  2765  0516  120A  158A  21E2   	fcall	_send_char
              120A  118A         
  2766                           	line	192
  2767                           ;Main.c: 192: switch(mode){
  2768  051B  2D4D               	goto	l5502
  2769                           	line	193
  2770                           ;Main.c: 193: case 0: lcd_goto(0); send_string("__"); break;
  2771                           	
  2772  051C                     l1159:	
  2773                           	
  2774  051C                     l5488:	
  2775  051C  3000               	movlw	(0)
  2776  051D  120A  158A  2146   	fcall	_lcd_goto
              120A  118A         
  2777                           	
  2778  0522                     l5490:	
  2779  0522  302D               	movlw	low((STR_5-__stringbase))
  2780  0523  00F9               	movwf	(?_send_string)
  2781  0524  3080               	movlw	80h
  2782  0525  00FA               	movwf	(?_send_string+1)
  2783  0526  120A  158A  2302   	fcall	_send_string
              120A  118A         
  2784  052B  2D5A               	goto	l1160
  2785                           	line	194
  2786                           ;Main.c: 194: case 1: lcd_goto(5); send_string("__"); break;
  2787                           	
  2788  052C                     l1161:	
  2789                           	
  2790  052C                     l5492:	
  2791  052C  3005               	movlw	(05h)
  2792  052D  120A  158A  2146   	fcall	_lcd_goto
              120A  118A         
  2793                           	
  2794  0532                     l5494:	
  2795  0532  302D               	movlw	low((STR_6-__stringbase))
  2796  0533  00F9               	movwf	(?_send_string)
  2797  0534  3080               	movlw	80h
  2798  0535  00FA               	movwf	(?_send_string+1)
  2799  0536  120A  158A  2302   	fcall	_send_string
              120A  118A         
  2800  053B  2D5A               	goto	l1160
  2801                           	line	195
  2802                           ;Main.c: 195: case 2: lcd_goto(10); send_string("__"); break;
  2803                           	
  2804  053C                     l1162:	
  2805                           	
  2806  053C                     l5496:	
  2807  053C  300A               	movlw	(0Ah)
  2808  053D  120A  158A  2146   	fcall	_lcd_goto
              120A  118A         
  2809                           	
  2810  0542                     l5498:	
  2811  0542  302D               	movlw	low((STR_7-__stringbase))
  2812  0543  00F9               	movwf	(?_send_string)
  2813  0544  3080               	movlw	80h
  2814  0545  00FA               	movwf	(?_send_string+1)
  2815  0546  120A  158A  2302   	fcall	_send_string
              120A  118A         
  2816  054B  2D5A               	goto	l1160
  2817                           	line	196
  2818                           	
  2819  054C                     l5500:	
  2820                           ;Main.c: 196: }
  2821  054C  2D5A               	goto	l1160
  2822                           	line	192
  2823                           	
  2824  054D                     l1158:	
  2825                           	
  2826  054D                     l5502:	
  2827  054D  1683               	bsf	status, 5	;RP0=1, select bank1
  2828  054E  1303               	bcf	status, 6	;RP1=0, select bank1
  2829  054F  0833               	movf	(_mode)^080h,w
  2830                           	; Switch size 1, requested type "space"
  2831                           ; Number of cases is 3, Range of values is 0 to 2
  2832                           ; switch strategies available:
  2833                           ; Name         Instructions Cycles
  2834                           ; simple_byte           10     6 (average)
  2835                           ; direct_byte           17     8 (fixed)
  2836                           ; jumptable            260     6 (fixed)
  2837                           ; rangetable             7     6 (fixed)
  2838                           ; spacedrange           12     9 (fixed)
  2839                           ; locatedrange           3     3 (fixed)
  2840                           ;	Chosen strategy is simple_byte
  2841                           
  2842                           	opt asmopt_off
  2843  0550  3A00               	xorlw	0^0	; case 0
  2844  0551  1903               	skipnz
  2845  0552  2D1C               	goto	l5488
  2846  0553  3A01               	xorlw	1^0	; case 1
  2847  0554  1903               	skipnz
  2848  0555  2D2C               	goto	l5492
  2849  0556  3A03               	xorlw	2^1	; case 2
  2850  0557  1903               	skipnz
  2851  0558  2D3C               	goto	l5496
  2852  0559  2D5A               	goto	l1160
  2853                           	opt asmopt_on
  2854                           
  2855                           	line	196
  2856                           	
  2857  055A                     l1160:	
  2858                           	line	198
  2859                           ;Main.c: 198: if(RB0==0){
  2860  055A  1283               	bcf	status, 5	;RP0=0, select bank0
  2861  055B  1303               	bcf	status, 6	;RP1=0, select bank0
  2862  055C  1806               	btfsc	(48/8),(48)&7
  2863  055D  2D5F               	goto	u3951
  2864  055E  2D60               	goto	u3950
  2865  055F                     u3951:
  2866  055F  2EC7               	goto	l1163
  2867  0560                     u3950:
  2868                           	line	200
  2869                           	
  2870  0560                     l5504:	
  2871                           ;Main.c: 200: count=0;
  2872  0560  3000               	movlw	0
  2873  0561  1683               	bsf	status, 5	;RP0=1, select bank1
  2874  0562  1303               	bcf	status, 6	;RP1=0, select bank1
  2875  0563  00B7               	movwf	(PID_MENU@count+3)^080h
  2876  0564  3000               	movlw	0
  2877  0565  00B6               	movwf	(PID_MENU@count+2)^080h
  2878  0566  3000               	movlw	0
  2879  0567  00B5               	movwf	(PID_MENU@count+1)^080h
  2880  0568  3000               	movlw	0
  2881  0569  00B4               	movwf	(PID_MENU@count)^080h
  2882                           
  2883                           	line	201
  2884                           ;Main.c: 201: while(RB0==0){
  2885  056A  2D9E               	goto	l1164
  2886                           	
  2887  056B                     l1165:	
  2888                           	line	203
  2889                           	
  2890  056B                     l5506:	
  2891                           ;Main.c: 203: count++;
  2892  056B  3001               	movlw	01h
  2893  056C  1683               	bsf	status, 5	;RP0=1, select bank1
  2894  056D  1303               	bcf	status, 6	;RP1=0, select bank1
  2895  056E  07B4               	addwf	(PID_MENU@count)^080h,f
  2896  056F  3000               	movlw	0
  2897  0570  1803               	skipnc
  2898  0571  3001               movlw 1
  2899  0572  07B5               	addwf	(PID_MENU@count+1)^080h,f
  2900  0573  3000               	movlw	0
  2901  0574  1803               	skipnc
  2902  0575  3001               movlw 1
  2903  0576  07B6               	addwf	(PID_MENU@count+2)^080h,f
  2904  0577  3000               	movlw	0
  2905  0578  1803               	skipnc
  2906  0579  3001               movlw 1
  2907  057A  07B7               	addwf	(PID_MENU@count+3)^080h,f
  2908                           	line	205
  2909                           ;Main.c: 205: if(count>100000){
  2910  057B  3000               	movlw	0
  2911  057C  0237               	subwf	(PID_MENU@count+3)^080h,w
  2912  057D  1D03               	skipz
  2913  057E  2D89               	goto	u3965
  2914  057F  3001               	movlw	01h
  2915  0580  0236               	subwf	(PID_MENU@count+2)^080h,w
  2916  0581  1D03               	skipz
  2917  0582  2D89               	goto	u3965
  2918  0583  3086               	movlw	086h
  2919  0584  0235               	subwf	(PID_MENU@count+1)^080h,w
  2920  0585  1D03               	skipz
  2921  0586  2D89               	goto	u3965
  2922  0587  30A1               	movlw	0A1h
  2923  0588  0234               	subwf	(PID_MENU@count)^080h,w
  2924  0589                     u3965:
  2925  0589  1C03               	skipc
  2926  058A  2D8C               	goto	u3961
  2927  058B  2D8D               	goto	u3960
  2928  058C                     u3961:
  2929  058C  2D9E               	goto	l1164
  2930  058D                     u3960:
  2931                           	line	206
  2932                           	
  2933  058D                     l5508:	
  2934                           ;Main.c: 206: mode++;
  2935  058D  3001               	movlw	(01h)
  2936  058E  1283               	bcf	status, 5	;RP0=0, select bank0
  2937  058F  1303               	bcf	status, 6	;RP1=0, select bank0
  2938  0590  00EC               	movwf	(??_PID_MENU+0)+0
  2939  0591  086C               	movf	(??_PID_MENU+0)+0,w
  2940  0592  1683               	bsf	status, 5	;RP0=1, select bank1
  2941  0593  1303               	bcf	status, 6	;RP1=0, select bank1
  2942  0594  07B3               	addwf	(_mode)^080h,f
  2943                           	line	207
  2944                           	
  2945  0595                     l5510:	
  2946                           ;Main.c: 207: if(mode>2) mode=0;
  2947  0595  3003               	movlw	(03h)
  2948  0596  0233               	subwf	(_mode)^080h,w
  2949  0597  1C03               	skipc
  2950  0598  2D9A               	goto	u3971
  2951  0599  2D9B               	goto	u3970
  2952  059A                     u3971:
  2953  059A  2DA4               	goto	l1168
  2954  059B                     u3970:
  2955                           	
  2956  059B                     l5512:	
  2957  059B  01B3               	clrf	(_mode)^080h
  2958  059C  2DA4               	goto	l1168
  2959                           	
  2960  059D                     l1167:	
  2961                           	line	208
  2962                           ;Main.c: 208: break;
  2963  059D  2DA4               	goto	l1168
  2964                           	line	209
  2965                           	
  2966  059E                     l1166:	
  2967                           	line	210
  2968                           	
  2969  059E                     l1164:	
  2970                           	line	201
  2971  059E  1283               	bcf	status, 5	;RP0=0, select bank0
  2972  059F  1303               	bcf	status, 6	;RP1=0, select bank0
  2973  05A0  1C06               	btfss	(48/8),(48)&7
  2974  05A1  2DA3               	goto	u3981
  2975  05A2  2DA4               	goto	u3980
  2976  05A3                     u3981:
  2977  05A3  2D6B               	goto	l5506
  2978  05A4                     u3980:
  2979                           	
  2980  05A4                     l1168:	
  2981                           	line	211
  2982                           ;Main.c: 209: }
  2983                           ;Main.c: 210: }
  2984                           ;Main.c: 211: if(RB1==0) break;
  2985  05A4  1283               	bcf	status, 5	;RP0=0, select bank0
  2986  05A5  1886               	btfsc	(49/8),(49)&7
  2987  05A6  2DA8               	goto	u3991
  2988  05A7  2DA9               	goto	u3990
  2989  05A8                     u3991:
  2990  05A8  2EBA               	goto	l5530
  2991  05A9                     u3990:
  2992  05A9  2FFF               	goto	l1192
  2993                           	
  2994  05AA                     l5514:	
  2995  05AA  2FFF               	goto	l1192
  2996                           	
  2997  05AB                     l1169:	
  2998                           	line	212
  2999                           ;Main.c: 212: switch(mode){
  3000  05AB  2EBA               	goto	l5530
  3001                           	line	213
  3002                           ;Main.c: 213: case 0: Kp-=0.2; if(Kp<0.0) Kp=0; break;
  3003                           	
  3004  05AC                     l1172:	
  3005                           	
  3006  05AC                     l5516:	
  3007  05AC  30CD               	movlw	0xcd
  3008  05AD  1283               	bcf	status, 5	;RP0=0, select bank0
  3009  05AE  00D2               	movwf	(?___ftsub)
  3010  05AF  304C               	movlw	0x4c
  3011  05B0  00D3               	movwf	(?___ftsub+1)
  3012  05B1  303E               	movlw	0x3e
  3013  05B2  00D4               	movwf	(?___ftsub+2)
  3014  05B3  1683               	bsf	status, 5	;RP0=1, select bank1
  3015  05B4  1303               	bcf	status, 6	;RP1=0, select bank1
  3016  05B5  0848               	movf	(_Kp)^080h,w
  3017  05B6  1283               	bcf	status, 5	;RP0=0, select bank0
  3018  05B7  1303               	bcf	status, 6	;RP1=0, select bank0
  3019  05B8  00D5               	movwf	0+(?___ftsub)+03h
  3020  05B9  1683               	bsf	status, 5	;RP0=1, select bank1
  3021  05BA  1303               	bcf	status, 6	;RP1=0, select bank1
  3022  05BB  0849               	movf	(_Kp+1)^080h,w
  3023  05BC  1283               	bcf	status, 5	;RP0=0, select bank0
  3024  05BD  1303               	bcf	status, 6	;RP1=0, select bank0
  3025  05BE  00D6               	movwf	1+(?___ftsub)+03h
  3026  05BF  1683               	bsf	status, 5	;RP0=1, select bank1
  3027  05C0  1303               	bcf	status, 6	;RP1=0, select bank1
  3028  05C1  084A               	movf	(_Kp+2)^080h,w
  3029  05C2  1283               	bcf	status, 5	;RP0=0, select bank0
  3030  05C3  1303               	bcf	status, 6	;RP1=0, select bank0
  3031  05C4  00D7               	movwf	2+(?___ftsub)+03h
  3032  05C5  120A  158A  2163   	fcall	___ftsub
              120A  118A         
  3033  05CA  1283               	bcf	status, 5	;RP0=0, select bank0
  3034  05CB  1303               	bcf	status, 6	;RP1=0, select bank0
  3035  05CC  0852               	movf	(0+(?___ftsub)),w
  3036  05CD  1683               	bsf	status, 5	;RP0=1, select bank1
  3037  05CE  1303               	bcf	status, 6	;RP1=0, select bank1
  3038  05CF  00C8               	movwf	(_Kp)^080h
  3039  05D0  1283               	bcf	status, 5	;RP0=0, select bank0
  3040  05D1  1303               	bcf	status, 6	;RP1=0, select bank0
  3041  05D2  0853               	movf	(1+(?___ftsub)),w
  3042  05D3  1683               	bsf	status, 5	;RP0=1, select bank1
  3043  05D4  1303               	bcf	status, 6	;RP1=0, select bank1
  3044  05D5  00C9               	movwf	(_Kp+1)^080h
  3045  05D6  1283               	bcf	status, 5	;RP0=0, select bank0
  3046  05D7  1303               	bcf	status, 6	;RP1=0, select bank0
  3047  05D8  0854               	movf	(2+(?___ftsub)),w
  3048  05D9  1683               	bsf	status, 5	;RP0=1, select bank1
  3049  05DA  1303               	bcf	status, 6	;RP1=0, select bank1
  3050  05DB  00CA               	movwf	(_Kp+2)^080h
  3051  05DC  0848               	movf	(_Kp)^080h,w
  3052  05DD  1283               	bcf	status, 5	;RP0=0, select bank0
  3053  05DE  1303               	bcf	status, 6	;RP1=0, select bank0
  3054  05DF  00A0               	movwf	(?___ftge)
  3055  05E0  1683               	bsf	status, 5	;RP0=1, select bank1
  3056  05E1  1303               	bcf	status, 6	;RP1=0, select bank1
  3057  05E2  0849               	movf	(_Kp+1)^080h,w
  3058  05E3  1283               	bcf	status, 5	;RP0=0, select bank0
  3059  05E4  1303               	bcf	status, 6	;RP1=0, select bank0
  3060  05E5  00A1               	movwf	(?___ftge+1)
  3061  05E6  1683               	bsf	status, 5	;RP0=1, select bank1
  3062  05E7  1303               	bcf	status, 6	;RP1=0, select bank1
  3063  05E8  084A               	movf	(_Kp+2)^080h,w
  3064  05E9  1283               	bcf	status, 5	;RP0=0, select bank0
  3065  05EA  1303               	bcf	status, 6	;RP1=0, select bank0
  3066  05EB  00A2               	movwf	(?___ftge+2)
  3067  05EC  3000               	movlw	0x0
  3068  05ED  00A3               	movwf	0+(?___ftge)+03h
  3069  05EE  3000               	movlw	0x0
  3070  05EF  00A4               	movwf	1+(?___ftge)+03h
  3071  05F0  3000               	movlw	0x0
  3072  05F1  00A5               	movwf	2+(?___ftge)+03h
  3073  05F2  120A  158A  249D   	fcall	___ftge
              120A  118A         
  3074  05F7  1803               	btfsc	status,0
  3075  05F8  2DFA               	goto	u4001
  3076  05F9  2DFB               	goto	u4000
  3077  05FA                     u4001:
  3078  05FA  2EC7               	goto	l1163
  3079  05FB                     u4000:
  3080                           	
  3081  05FB                     l5518:	
  3082  05FB  3000               	movlw	0x0
  3083  05FC  1683               	bsf	status, 5	;RP0=1, select bank1
  3084  05FD  1303               	bcf	status, 6	;RP1=0, select bank1
  3085  05FE  00C8               	movwf	(_Kp)^080h
  3086  05FF  3000               	movlw	0x0
  3087  0600  00C9               	movwf	(_Kp+1)^080h
  3088  0601  3000               	movlw	0x0
  3089  0602  00CA               	movwf	(_Kp+2)^080h
  3090  0603  2EC7               	goto	l1163
  3091                           	
  3092  0604                     l1173:	
  3093  0604  2EC7               	goto	l1163
  3094                           	line	214
  3095                           ;Main.c: 214: case 1: Ki-=0.01; if(Ki<0.0) Ki=0; break;
  3096                           	
  3097  0605                     l1175:	
  3098                           	
  3099  0605                     l5520:	
  3100  0605  30D7               	movlw	0xd7
  3101  0606  1283               	bcf	status, 5	;RP0=0, select bank0
  3102  0607  1303               	bcf	status, 6	;RP1=0, select bank0
  3103  0608  00D2               	movwf	(?___ftsub)
  3104  0609  3023               	movlw	0x23
  3105  060A  00D3               	movwf	(?___ftsub+1)
  3106  060B  303C               	movlw	0x3c
  3107  060C  00D4               	movwf	(?___ftsub+2)
  3108  060D  1683               	bsf	status, 5	;RP0=1, select bank1
  3109  060E  1303               	bcf	status, 6	;RP1=0, select bank1
  3110  060F  0845               	movf	(_Ki)^080h,w
  3111  0610  1283               	bcf	status, 5	;RP0=0, select bank0
  3112  0611  1303               	bcf	status, 6	;RP1=0, select bank0
  3113  0612  00D5               	movwf	0+(?___ftsub)+03h
  3114  0613  1683               	bsf	status, 5	;RP0=1, select bank1
  3115  0614  1303               	bcf	status, 6	;RP1=0, select bank1
  3116  0615  0846               	movf	(_Ki+1)^080h,w
  3117  0616  1283               	bcf	status, 5	;RP0=0, select bank0
  3118  0617  1303               	bcf	status, 6	;RP1=0, select bank0
  3119  0618  00D6               	movwf	1+(?___ftsub)+03h
  3120  0619  1683               	bsf	status, 5	;RP0=1, select bank1
  3121  061A  1303               	bcf	status, 6	;RP1=0, select bank1
  3122  061B  0847               	movf	(_Ki+2)^080h,w
  3123  061C  1283               	bcf	status, 5	;RP0=0, select bank0
  3124  061D  1303               	bcf	status, 6	;RP1=0, select bank0
  3125  061E  00D7               	movwf	2+(?___ftsub)+03h
  3126  061F  120A  158A  2163   	fcall	___ftsub
              120A  118A         
  3127  0624  1283               	bcf	status, 5	;RP0=0, select bank0
  3128  0625  1303               	bcf	status, 6	;RP1=0, select bank0
  3129  0626  0852               	movf	(0+(?___ftsub)),w
  3130  0627  1683               	bsf	status, 5	;RP0=1, select bank1
  3131  0628  1303               	bcf	status, 6	;RP1=0, select bank1
  3132  0629  00C5               	movwf	(_Ki)^080h
  3133  062A  1283               	bcf	status, 5	;RP0=0, select bank0
  3134  062B  1303               	bcf	status, 6	;RP1=0, select bank0
  3135  062C  0853               	movf	(1+(?___ftsub)),w
  3136  062D  1683               	bsf	status, 5	;RP0=1, select bank1
  3137  062E  1303               	bcf	status, 6	;RP1=0, select bank1
  3138  062F  00C6               	movwf	(_Ki+1)^080h
  3139  0630  1283               	bcf	status, 5	;RP0=0, select bank0
  3140  0631  1303               	bcf	status, 6	;RP1=0, select bank0
  3141  0632  0854               	movf	(2+(?___ftsub)),w
  3142  0633  1683               	bsf	status, 5	;RP0=1, select bank1
  3143  0634  1303               	bcf	status, 6	;RP1=0, select bank1
  3144  0635  00C7               	movwf	(_Ki+2)^080h
  3145  0636  0845               	movf	(_Ki)^080h,w
  3146  0637  1283               	bcf	status, 5	;RP0=0, select bank0
  3147  0638  1303               	bcf	status, 6	;RP1=0, select bank0
  3148  0639  00A0               	movwf	(?___ftge)
  3149  063A  1683               	bsf	status, 5	;RP0=1, select bank1
  3150  063B  1303               	bcf	status, 6	;RP1=0, select bank1
  3151  063C  0846               	movf	(_Ki+1)^080h,w
  3152  063D  1283               	bcf	status, 5	;RP0=0, select bank0
  3153  063E  1303               	bcf	status, 6	;RP1=0, select bank0
  3154  063F  00A1               	movwf	(?___ftge+1)
  3155  0640  1683               	bsf	status, 5	;RP0=1, select bank1
  3156  0641  1303               	bcf	status, 6	;RP1=0, select bank1
  3157  0642  0847               	movf	(_Ki+2)^080h,w
  3158  0643  1283               	bcf	status, 5	;RP0=0, select bank0
  3159  0644  1303               	bcf	status, 6	;RP1=0, select bank0
  3160  0645  00A2               	movwf	(?___ftge+2)
  3161  0646  3000               	movlw	0x0
  3162  0647  00A3               	movwf	0+(?___ftge)+03h
  3163  0648  3000               	movlw	0x0
  3164  0649  00A4               	movwf	1+(?___ftge)+03h
  3165  064A  3000               	movlw	0x0
  3166  064B  00A5               	movwf	2+(?___ftge)+03h
  3167  064C  120A  158A  249D   	fcall	___ftge
              120A  118A         
  3168  0651  1803               	btfsc	status,0
  3169  0652  2E54               	goto	u4011
  3170  0653  2E55               	goto	u4010
  3171  0654                     u4011:
  3172  0654  2EC7               	goto	l1163
  3173  0655                     u4010:
  3174                           	
  3175  0655                     l5522:	
  3176  0655  3000               	movlw	0x0
  3177  0656  1683               	bsf	status, 5	;RP0=1, select bank1
  3178  0657  1303               	bcf	status, 6	;RP1=0, select bank1
  3179  0658  00C5               	movwf	(_Ki)^080h
  3180  0659  3000               	movlw	0x0
  3181  065A  00C6               	movwf	(_Ki+1)^080h
  3182  065B  3000               	movlw	0x0
  3183  065C  00C7               	movwf	(_Ki+2)^080h
  3184  065D  2EC7               	goto	l1163
  3185                           	
  3186  065E                     l1176:	
  3187  065E  2EC7               	goto	l1163
  3188                           	line	215
  3189                           ;Main.c: 215: case 2: Kd-=1; if(Kd<0.0) Kd=0; break;
  3190                           	
  3191  065F                     l1177:	
  3192                           	
  3193  065F                     l5524:	
  3194  065F  3000               	movlw	0x0
  3195  0660  1283               	bcf	status, 5	;RP0=0, select bank0
  3196  0661  1303               	bcf	status, 6	;RP1=0, select bank0
  3197  0662  00D2               	movwf	(?___ftsub)
  3198  0663  3080               	movlw	0x80
  3199  0664  00D3               	movwf	(?___ftsub+1)
  3200  0665  303F               	movlw	0x3f
  3201  0666  00D4               	movwf	(?___ftsub+2)
  3202  0667  1683               	bsf	status, 5	;RP0=1, select bank1
  3203  0668  1303               	bcf	status, 6	;RP1=0, select bank1
  3204  0669  0842               	movf	(_Kd)^080h,w
  3205  066A  1283               	bcf	status, 5	;RP0=0, select bank0
  3206  066B  1303               	bcf	status, 6	;RP1=0, select bank0
  3207  066C  00D5               	movwf	0+(?___ftsub)+03h
  3208  066D  1683               	bsf	status, 5	;RP0=1, select bank1
  3209  066E  1303               	bcf	status, 6	;RP1=0, select bank1
  3210  066F  0843               	movf	(_Kd+1)^080h,w
  3211  0670  1283               	bcf	status, 5	;RP0=0, select bank0
  3212  0671  1303               	bcf	status, 6	;RP1=0, select bank0
  3213  0672  00D6               	movwf	1+(?___ftsub)+03h
  3214  0673  1683               	bsf	status, 5	;RP0=1, select bank1
  3215  0674  1303               	bcf	status, 6	;RP1=0, select bank1
  3216  0675  0844               	movf	(_Kd+2)^080h,w
  3217  0676  1283               	bcf	status, 5	;RP0=0, select bank0
  3218  0677  1303               	bcf	status, 6	;RP1=0, select bank0
  3219  0678  00D7               	movwf	2+(?___ftsub)+03h
  3220  0679  120A  158A  2163   	fcall	___ftsub
              120A  118A         
  3221  067E  1283               	bcf	status, 5	;RP0=0, select bank0
  3222  067F  1303               	bcf	status, 6	;RP1=0, select bank0
  3223  0680  0852               	movf	(0+(?___ftsub)),w
  3224  0681  1683               	bsf	status, 5	;RP0=1, select bank1
  3225  0682  1303               	bcf	status, 6	;RP1=0, select bank1
  3226  0683  00C2               	movwf	(_Kd)^080h
  3227  0684  1283               	bcf	status, 5	;RP0=0, select bank0
  3228  0685  1303               	bcf	status, 6	;RP1=0, select bank0
  3229  0686  0853               	movf	(1+(?___ftsub)),w
  3230  0687  1683               	bsf	status, 5	;RP0=1, select bank1
  3231  0688  1303               	bcf	status, 6	;RP1=0, select bank1
  3232  0689  00C3               	movwf	(_Kd+1)^080h
  3233  068A  1283               	bcf	status, 5	;RP0=0, select bank0
  3234  068B  1303               	bcf	status, 6	;RP1=0, select bank0
  3235  068C  0854               	movf	(2+(?___ftsub)),w
  3236  068D  1683               	bsf	status, 5	;RP0=1, select bank1
  3237  068E  1303               	bcf	status, 6	;RP1=0, select bank1
  3238  068F  00C4               	movwf	(_Kd+2)^080h
  3239  0690  0842               	movf	(_Kd)^080h,w
  3240  0691  1283               	bcf	status, 5	;RP0=0, select bank0
  3241  0692  1303               	bcf	status, 6	;RP1=0, select bank0
  3242  0693  00A0               	movwf	(?___ftge)
  3243  0694  1683               	bsf	status, 5	;RP0=1, select bank1
  3244  0695  1303               	bcf	status, 6	;RP1=0, select bank1
  3245  0696  0843               	movf	(_Kd+1)^080h,w
  3246  0697  1283               	bcf	status, 5	;RP0=0, select bank0
  3247  0698  1303               	bcf	status, 6	;RP1=0, select bank0
  3248  0699  00A1               	movwf	(?___ftge+1)
  3249  069A  1683               	bsf	status, 5	;RP0=1, select bank1
  3250  069B  1303               	bcf	status, 6	;RP1=0, select bank1
  3251  069C  0844               	movf	(_Kd+2)^080h,w
  3252  069D  1283               	bcf	status, 5	;RP0=0, select bank0
  3253  069E  1303               	bcf	status, 6	;RP1=0, select bank0
  3254  069F  00A2               	movwf	(?___ftge+2)
  3255  06A0  3000               	movlw	0x0
  3256  06A1  00A3               	movwf	0+(?___ftge)+03h
  3257  06A2  3000               	movlw	0x0
  3258  06A3  00A4               	movwf	1+(?___ftge)+03h
  3259  06A4  3000               	movlw	0x0
  3260  06A5  00A5               	movwf	2+(?___ftge)+03h
  3261  06A6  120A  158A  249D   	fcall	___ftge
              120A  118A         
  3262  06AB  1803               	btfsc	status,0
  3263  06AC  2EAE               	goto	u4021
  3264  06AD  2EAF               	goto	u4020
  3265  06AE                     u4021:
  3266  06AE  2EC7               	goto	l1163
  3267  06AF                     u4020:
  3268                           	
  3269  06AF                     l5526:	
  3270  06AF  3000               	movlw	0x0
  3271  06B0  1683               	bsf	status, 5	;RP0=1, select bank1
  3272  06B1  1303               	bcf	status, 6	;RP1=0, select bank1
  3273  06B2  00C2               	movwf	(_Kd)^080h
  3274  06B3  3000               	movlw	0x0
  3275  06B4  00C3               	movwf	(_Kd+1)^080h
  3276  06B5  3000               	movlw	0x0
  3277  06B6  00C4               	movwf	(_Kd+2)^080h
  3278  06B7  2EC7               	goto	l1163
  3279                           	
  3280  06B8                     l1178:	
  3281  06B8  2EC7               	goto	l1163
  3282                           	line	216
  3283                           	
  3284  06B9                     l5528:	
  3285                           ;Main.c: 216: }
  3286  06B9  2EC7               	goto	l1163
  3287                           	line	212
  3288                           	
  3289  06BA                     l1171:	
  3290                           	
  3291  06BA                     l5530:	
  3292  06BA  1683               	bsf	status, 5	;RP0=1, select bank1
  3293  06BB  1303               	bcf	status, 6	;RP1=0, select bank1
  3294  06BC  0833               	movf	(_mode)^080h,w
  3295                           	; Switch size 1, requested type "space"
  3296                           ; Number of cases is 3, Range of values is 0 to 2
  3297                           ; switch strategies available:
  3298                           ; Name         Instructions Cycles
  3299                           ; simple_byte           10     6 (average)
  3300                           ; direct_byte           17     8 (fixed)
  3301                           ; jumptable            260     6 (fixed)
  3302                           ; rangetable             7     6 (fixed)
  3303                           ; spacedrange           12     9 (fixed)
  3304                           ; locatedrange           3     3 (fixed)
  3305                           ;	Chosen strategy is simple_byte
  3306                           
  3307                           	opt asmopt_off
  3308  06BD  3A00               	xorlw	0^0	; case 0
  3309  06BE  1903               	skipnz
  3310  06BF  2DAC               	goto	l5516
  3311  06C0  3A01               	xorlw	1^0	; case 1
  3312  06C1  1903               	skipnz
  3313  06C2  2E05               	goto	l5520
  3314  06C3  3A03               	xorlw	2^1	; case 2
  3315  06C4  1903               	skipnz
  3316  06C5  2E5F               	goto	l5524
  3317  06C6  2EC7               	goto	l1163
  3318                           	opt asmopt_on
  3319                           
  3320                           	line	216
  3321                           	
  3322  06C7                     l1174:	
  3323                           	line	218
  3324                           	
  3325  06C7                     l1163:	
  3326                           	line	219
  3327                           ;Main.c: 218: }
  3328                           ;Main.c: 219: if(RB1==0){
  3329  06C7  1283               	bcf	status, 5	;RP0=0, select bank0
  3330  06C8  1303               	bcf	status, 6	;RP1=0, select bank0
  3331  06C9  1886               	btfsc	(49/8),(49)&7
  3332  06CA  2ECC               	goto	u4031
  3333  06CB  2ECD               	goto	u4030
  3334  06CC                     u4031:
  3335  06CC  2B26               	goto	l5454
  3336  06CD                     u4030:
  3337  06CD  2ECF               	goto	l1180
  3338                           	line	220
  3339                           	
  3340  06CE                     l5532:	
  3341                           ;Main.c: 220: while(RB1==0);
  3342  06CE  2ECF               	goto	l1180
  3343                           	
  3344  06CF                     l1181:	
  3345                           	
  3346  06CF                     l1180:	
  3347  06CF  1C86               	btfss	(49/8),(49)&7
  3348  06D0  2ED2               	goto	u4041
  3349  06D1  2ED3               	goto	u4040
  3350  06D2                     u4041:
  3351  06D2  2ECF               	goto	l1180
  3352  06D3                     u4040:
  3353  06D3  2FEF               	goto	l5548
  3354                           	
  3355  06D4                     l1182:	
  3356                           	line	221
  3357                           ;Main.c: 221: switch(mode){
  3358  06D4  2FEF               	goto	l5548
  3359                           	line	222
  3360                           ;Main.c: 222: case 0: Kp+=0.2; if(Kp>9) Kp=9; break;
  3361                           	
  3362  06D5                     l1184:	
  3363                           	
  3364  06D5                     l5534:	
  3365  06D5  30CD               	movlw	0xcd
  3366  06D6  1283               	bcf	status, 5	;RP0=0, select bank0
  3367  06D7  00C5               	movwf	(?___ftadd)
  3368  06D8  304C               	movlw	0x4c
  3369  06D9  00C6               	movwf	(?___ftadd+1)
  3370  06DA  303E               	movlw	0x3e
  3371  06DB  00C7               	movwf	(?___ftadd+2)
  3372  06DC  1683               	bsf	status, 5	;RP0=1, select bank1
  3373  06DD  1303               	bcf	status, 6	;RP1=0, select bank1
  3374  06DE  0848               	movf	(_Kp)^080h,w
  3375  06DF  1283               	bcf	status, 5	;RP0=0, select bank0
  3376  06E0  1303               	bcf	status, 6	;RP1=0, select bank0
  3377  06E1  00C8               	movwf	0+(?___ftadd)+03h
  3378  06E2  1683               	bsf	status, 5	;RP0=1, select bank1
  3379  06E3  1303               	bcf	status, 6	;RP1=0, select bank1
  3380  06E4  0849               	movf	(_Kp+1)^080h,w
  3381  06E5  1283               	bcf	status, 5	;RP0=0, select bank0
  3382  06E6  1303               	bcf	status, 6	;RP1=0, select bank0
  3383  06E7  00C9               	movwf	1+(?___ftadd)+03h
  3384  06E8  1683               	bsf	status, 5	;RP0=1, select bank1
  3385  06E9  1303               	bcf	status, 6	;RP1=0, select bank1
  3386  06EA  084A               	movf	(_Kp+2)^080h,w
  3387  06EB  1283               	bcf	status, 5	;RP0=0, select bank0
  3388  06EC  1303               	bcf	status, 6	;RP1=0, select bank0
  3389  06ED  00CA               	movwf	2+(?___ftadd)+03h
  3390  06EE  120A  158A  26BA   	fcall	___ftadd
              120A  118A         
  3391  06F3  1283               	bcf	status, 5	;RP0=0, select bank0
  3392  06F4  1303               	bcf	status, 6	;RP1=0, select bank0
  3393  06F5  0845               	movf	(0+(?___ftadd)),w
  3394  06F6  1683               	bsf	status, 5	;RP0=1, select bank1
  3395  06F7  1303               	bcf	status, 6	;RP1=0, select bank1
  3396  06F8  00C8               	movwf	(_Kp)^080h
  3397  06F9  1283               	bcf	status, 5	;RP0=0, select bank0
  3398  06FA  1303               	bcf	status, 6	;RP1=0, select bank0
  3399  06FB  0846               	movf	(1+(?___ftadd)),w
  3400  06FC  1683               	bsf	status, 5	;RP0=1, select bank1
  3401  06FD  1303               	bcf	status, 6	;RP1=0, select bank1
  3402  06FE  00C9               	movwf	(_Kp+1)^080h
  3403  06FF  1283               	bcf	status, 5	;RP0=0, select bank0
  3404  0700  1303               	bcf	status, 6	;RP1=0, select bank0
  3405  0701  0847               	movf	(2+(?___ftadd)),w
  3406  0702  1683               	bsf	status, 5	;RP0=1, select bank1
  3407  0703  1303               	bcf	status, 6	;RP1=0, select bank1
  3408  0704  00CA               	movwf	(_Kp+2)^080h
  3409  0705  3000               	movlw	0x0
  3410  0706  1283               	bcf	status, 5	;RP0=0, select bank0
  3411  0707  1303               	bcf	status, 6	;RP1=0, select bank0
  3412  0708  00A0               	movwf	(?___ftge)
  3413  0709  3010               	movlw	0x10
  3414  070A  00A1               	movwf	(?___ftge+1)
  3415  070B  3041               	movlw	0x41
  3416  070C  00A2               	movwf	(?___ftge+2)
  3417  070D  1683               	bsf	status, 5	;RP0=1, select bank1
  3418  070E  1303               	bcf	status, 6	;RP1=0, select bank1
  3419  070F  0848               	movf	(_Kp)^080h,w
  3420  0710  1283               	bcf	status, 5	;RP0=0, select bank0
  3421  0711  1303               	bcf	status, 6	;RP1=0, select bank0
  3422  0712  00A3               	movwf	0+(?___ftge)+03h
  3423  0713  1683               	bsf	status, 5	;RP0=1, select bank1
  3424  0714  1303               	bcf	status, 6	;RP1=0, select bank1
  3425  0715  0849               	movf	(_Kp+1)^080h,w
  3426  0716  1283               	bcf	status, 5	;RP0=0, select bank0
  3427  0717  1303               	bcf	status, 6	;RP1=0, select bank0
  3428  0718  00A4               	movwf	1+(?___ftge)+03h
  3429  0719  1683               	bsf	status, 5	;RP0=1, select bank1
  3430  071A  1303               	bcf	status, 6	;RP1=0, select bank1
  3431  071B  084A               	movf	(_Kp+2)^080h,w
  3432  071C  1283               	bcf	status, 5	;RP0=0, select bank0
  3433  071D  1303               	bcf	status, 6	;RP1=0, select bank0
  3434  071E  00A5               	movwf	2+(?___ftge)+03h
  3435  071F  120A  158A  249D   	fcall	___ftge
              120A  118A         
  3436  0724  1803               	btfsc	status,0
  3437  0725  2F27               	goto	u4051
  3438  0726  2F28               	goto	u4050
  3439  0727                     u4051:
  3440  0727  2B26               	goto	l5454
  3441  0728                     u4050:
  3442                           	
  3443  0728                     l5536:	
  3444  0728  3000               	movlw	0x0
  3445  0729  1683               	bsf	status, 5	;RP0=1, select bank1
  3446  072A  1303               	bcf	status, 6	;RP1=0, select bank1
  3447  072B  00C8               	movwf	(_Kp)^080h
  3448  072C  3010               	movlw	0x10
  3449  072D  00C9               	movwf	(_Kp+1)^080h
  3450  072E  3041               	movlw	0x41
  3451  072F  00CA               	movwf	(_Kp+2)^080h
  3452  0730  2B26               	goto	l5454
  3453                           	
  3454  0731                     l1185:	
  3455  0731  2B26               	goto	l5454
  3456                           	line	223
  3457                           ;Main.c: 223: case 1: Ki+=0.01; if(Ki>3) Ki=3; break;
  3458                           	
  3459  0732                     l1187:	
  3460                           	
  3461  0732                     l5538:	
  3462  0732  30D7               	movlw	0xd7
  3463  0733  1283               	bcf	status, 5	;RP0=0, select bank0
  3464  0734  1303               	bcf	status, 6	;RP1=0, select bank0
  3465  0735  00C5               	movwf	(?___ftadd)
  3466  0736  3023               	movlw	0x23
  3467  0737  00C6               	movwf	(?___ftadd+1)
  3468  0738  303C               	movlw	0x3c
  3469  0739  00C7               	movwf	(?___ftadd+2)
  3470  073A  1683               	bsf	status, 5	;RP0=1, select bank1
  3471  073B  1303               	bcf	status, 6	;RP1=0, select bank1
  3472  073C  0845               	movf	(_Ki)^080h,w
  3473  073D  1283               	bcf	status, 5	;RP0=0, select bank0
  3474  073E  1303               	bcf	status, 6	;RP1=0, select bank0
  3475  073F  00C8               	movwf	0+(?___ftadd)+03h
  3476  0740  1683               	bsf	status, 5	;RP0=1, select bank1
  3477  0741  1303               	bcf	status, 6	;RP1=0, select bank1
  3478  0742  0846               	movf	(_Ki+1)^080h,w
  3479  0743  1283               	bcf	status, 5	;RP0=0, select bank0
  3480  0744  1303               	bcf	status, 6	;RP1=0, select bank0
  3481  0745  00C9               	movwf	1+(?___ftadd)+03h
  3482  0746  1683               	bsf	status, 5	;RP0=1, select bank1
  3483  0747  1303               	bcf	status, 6	;RP1=0, select bank1
  3484  0748  0847               	movf	(_Ki+2)^080h,w
  3485  0749  1283               	bcf	status, 5	;RP0=0, select bank0
  3486  074A  1303               	bcf	status, 6	;RP1=0, select bank0
  3487  074B  00CA               	movwf	2+(?___ftadd)+03h
  3488  074C  120A  158A  26BA   	fcall	___ftadd
              120A  118A         
  3489  0751  1283               	bcf	status, 5	;RP0=0, select bank0
  3490  0752  1303               	bcf	status, 6	;RP1=0, select bank0
  3491  0753  0845               	movf	(0+(?___ftadd)),w
  3492  0754  1683               	bsf	status, 5	;RP0=1, select bank1
  3493  0755  1303               	bcf	status, 6	;RP1=0, select bank1
  3494  0756  00C5               	movwf	(_Ki)^080h
  3495  0757  1283               	bcf	status, 5	;RP0=0, select bank0
  3496  0758  1303               	bcf	status, 6	;RP1=0, select bank0
  3497  0759  0846               	movf	(1+(?___ftadd)),w
  3498  075A  1683               	bsf	status, 5	;RP0=1, select bank1
  3499  075B  1303               	bcf	status, 6	;RP1=0, select bank1
  3500  075C  00C6               	movwf	(_Ki+1)^080h
  3501  075D  1283               	bcf	status, 5	;RP0=0, select bank0
  3502  075E  1303               	bcf	status, 6	;RP1=0, select bank0
  3503  075F  0847               	movf	(2+(?___ftadd)),w
  3504  0760  1683               	bsf	status, 5	;RP0=1, select bank1
  3505  0761  1303               	bcf	status, 6	;RP1=0, select bank1
  3506  0762  00C7               	movwf	(_Ki+2)^080h
  3507  0763  3000               	movlw	0x0
  3508  0764  1283               	bcf	status, 5	;RP0=0, select bank0
  3509  0765  1303               	bcf	status, 6	;RP1=0, select bank0
  3510  0766  00A0               	movwf	(?___ftge)
  3511  0767  3040               	movlw	0x40
  3512  0768  00A1               	movwf	(?___ftge+1)
  3513  0769  3040               	movlw	0x40
  3514  076A  00A2               	movwf	(?___ftge+2)
  3515  076B  1683               	bsf	status, 5	;RP0=1, select bank1
  3516  076C  1303               	bcf	status, 6	;RP1=0, select bank1
  3517  076D  0845               	movf	(_Ki)^080h,w
  3518  076E  1283               	bcf	status, 5	;RP0=0, select bank0
  3519  076F  1303               	bcf	status, 6	;RP1=0, select bank0
  3520  0770  00A3               	movwf	0+(?___ftge)+03h
  3521  0771  1683               	bsf	status, 5	;RP0=1, select bank1
  3522  0772  1303               	bcf	status, 6	;RP1=0, select bank1
  3523  0773  0846               	movf	(_Ki+1)^080h,w
  3524  0774  1283               	bcf	status, 5	;RP0=0, select bank0
  3525  0775  1303               	bcf	status, 6	;RP1=0, select bank0
  3526  0776  00A4               	movwf	1+(?___ftge)+03h
  3527  0777  1683               	bsf	status, 5	;RP0=1, select bank1
  3528  0778  1303               	bcf	status, 6	;RP1=0, select bank1
  3529  0779  0847               	movf	(_Ki+2)^080h,w
  3530  077A  1283               	bcf	status, 5	;RP0=0, select bank0
  3531  077B  1303               	bcf	status, 6	;RP1=0, select bank0
  3532  077C  00A5               	movwf	2+(?___ftge)+03h
  3533  077D  120A  158A  249D   	fcall	___ftge
              120A  118A         
  3534  0782  1803               	btfsc	status,0
  3535  0783  2F85               	goto	u4061
  3536  0784  2F86               	goto	u4060
  3537  0785                     u4061:
  3538  0785  2B26               	goto	l5454
  3539  0786                     u4060:
  3540                           	
  3541  0786                     l5540:	
  3542  0786  3000               	movlw	0x0
  3543  0787  1683               	bsf	status, 5	;RP0=1, select bank1
  3544  0788  1303               	bcf	status, 6	;RP1=0, select bank1
  3545  0789  00C5               	movwf	(_Ki)^080h
  3546  078A  3040               	movlw	0x40
  3547  078B  00C6               	movwf	(_Ki+1)^080h
  3548  078C  3040               	movlw	0x40
  3549  078D  00C7               	movwf	(_Ki+2)^080h
  3550  078E  2B26               	goto	l5454
  3551                           	
  3552  078F                     l1188:	
  3553  078F  2B26               	goto	l5454
  3554                           	line	224
  3555                           ;Main.c: 224: case 2: Kd+=1; if(Kd>50) Kd=50; break;
  3556                           	
  3557  0790                     l1189:	
  3558                           	
  3559  0790                     l5542:	
  3560  0790  3000               	movlw	0x0
  3561  0791  1283               	bcf	status, 5	;RP0=0, select bank0
  3562  0792  1303               	bcf	status, 6	;RP1=0, select bank0
  3563  0793  00C5               	movwf	(?___ftadd)
  3564  0794  3080               	movlw	0x80
  3565  0795  00C6               	movwf	(?___ftadd+1)
  3566  0796  303F               	movlw	0x3f
  3567  0797  00C7               	movwf	(?___ftadd+2)
  3568  0798  1683               	bsf	status, 5	;RP0=1, select bank1
  3569  0799  1303               	bcf	status, 6	;RP1=0, select bank1
  3570  079A  0842               	movf	(_Kd)^080h,w
  3571  079B  1283               	bcf	status, 5	;RP0=0, select bank0
  3572  079C  1303               	bcf	status, 6	;RP1=0, select bank0
  3573  079D  00C8               	movwf	0+(?___ftadd)+03h
  3574  079E  1683               	bsf	status, 5	;RP0=1, select bank1
  3575  079F  1303               	bcf	status, 6	;RP1=0, select bank1
  3576  07A0  0843               	movf	(_Kd+1)^080h,w
  3577  07A1  1283               	bcf	status, 5	;RP0=0, select bank0
  3578  07A2  1303               	bcf	status, 6	;RP1=0, select bank0
  3579  07A3  00C9               	movwf	1+(?___ftadd)+03h
  3580  07A4  1683               	bsf	status, 5	;RP0=1, select bank1
  3581  07A5  1303               	bcf	status, 6	;RP1=0, select bank1
  3582  07A6  0844               	movf	(_Kd+2)^080h,w
  3583  07A7  1283               	bcf	status, 5	;RP0=0, select bank0
  3584  07A8  1303               	bcf	status, 6	;RP1=0, select bank0
  3585  07A9  00CA               	movwf	2+(?___ftadd)+03h
  3586  07AA  120A  158A  26BA   	fcall	___ftadd
              120A  118A         
  3587  07AF  1283               	bcf	status, 5	;RP0=0, select bank0
  3588  07B0  1303               	bcf	status, 6	;RP1=0, select bank0
  3589  07B1  0845               	movf	(0+(?___ftadd)),w
  3590  07B2  1683               	bsf	status, 5	;RP0=1, select bank1
  3591  07B3  1303               	bcf	status, 6	;RP1=0, select bank1
  3592  07B4  00C2               	movwf	(_Kd)^080h
  3593  07B5  1283               	bcf	status, 5	;RP0=0, select bank0
  3594  07B6  1303               	bcf	status, 6	;RP1=0, select bank0
  3595  07B7  0846               	movf	(1+(?___ftadd)),w
  3596  07B8  1683               	bsf	status, 5	;RP0=1, select bank1
  3597  07B9  1303               	bcf	status, 6	;RP1=0, select bank1
  3598  07BA  00C3               	movwf	(_Kd+1)^080h
  3599  07BB  1283               	bcf	status, 5	;RP0=0, select bank0
  3600  07BC  1303               	bcf	status, 6	;RP1=0, select bank0
  3601  07BD  0847               	movf	(2+(?___ftadd)),w
  3602  07BE  1683               	bsf	status, 5	;RP0=1, select bank1
  3603  07BF  1303               	bcf	status, 6	;RP1=0, select bank1
  3604  07C0  00C4               	movwf	(_Kd+2)^080h
  3605  07C1  3000               	movlw	0x0
  3606  07C2  1283               	bcf	status, 5	;RP0=0, select bank0
  3607  07C3  1303               	bcf	status, 6	;RP1=0, select bank0
  3608  07C4  00A0               	movwf	(?___ftge)
  3609  07C5  3048               	movlw	0x48
  3610  07C6  00A1               	movwf	(?___ftge+1)
  3611  07C7  3042               	movlw	0x42
  3612  07C8  00A2               	movwf	(?___ftge+2)
  3613  07C9  1683               	bsf	status, 5	;RP0=1, select bank1
  3614  07CA  1303               	bcf	status, 6	;RP1=0, select bank1
  3615  07CB  0842               	movf	(_Kd)^080h,w
  3616  07CC  1283               	bcf	status, 5	;RP0=0, select bank0
  3617  07CD  1303               	bcf	status, 6	;RP1=0, select bank0
  3618  07CE  00A3               	movwf	0+(?___ftge)+03h
  3619  07CF  1683               	bsf	status, 5	;RP0=1, select bank1
  3620  07D0  1303               	bcf	status, 6	;RP1=0, select bank1
  3621  07D1  0843               	movf	(_Kd+1)^080h,w
  3622  07D2  1283               	bcf	status, 5	;RP0=0, select bank0
  3623  07D3  1303               	bcf	status, 6	;RP1=0, select bank0
  3624  07D4  00A4               	movwf	1+(?___ftge)+03h
  3625  07D5  1683               	bsf	status, 5	;RP0=1, select bank1
  3626  07D6  1303               	bcf	status, 6	;RP1=0, select bank1
  3627  07D7  0844               	movf	(_Kd+2)^080h,w
  3628  07D8  1283               	bcf	status, 5	;RP0=0, select bank0
  3629  07D9  1303               	bcf	status, 6	;RP1=0, select bank0
  3630  07DA  00A5               	movwf	2+(?___ftge)+03h
  3631  07DB  120A  158A  249D   	fcall	___ftge
              120A  118A         
  3632  07E0  1803               	btfsc	status,0
  3633  07E1  2FE3               	goto	u4071
  3634  07E2  2FE4               	goto	u4070
  3635  07E3                     u4071:
  3636  07E3  2B26               	goto	l5454
  3637  07E4                     u4070:
  3638                           	
  3639  07E4                     l5544:	
  3640  07E4  3000               	movlw	0x0
  3641  07E5  1683               	bsf	status, 5	;RP0=1, select bank1
  3642  07E6  1303               	bcf	status, 6	;RP1=0, select bank1
  3643  07E7  00C2               	movwf	(_Kd)^080h
  3644  07E8  3048               	movlw	0x48
  3645  07E9  00C3               	movwf	(_Kd+1)^080h
  3646  07EA  3042               	movlw	0x42
  3647  07EB  00C4               	movwf	(_Kd+2)^080h
  3648  07EC  2B26               	goto	l5454
  3649                           	
  3650  07ED                     l1190:	
  3651  07ED  2B26               	goto	l5454
  3652                           	line	225
  3653                           	
  3654  07EE                     l5546:	
  3655                           ;Main.c: 225: }
  3656  07EE  2B26               	goto	l5454
  3657                           	line	221
  3658                           	
  3659  07EF                     l1183:	
  3660                           	
  3661  07EF                     l5548:	
  3662  07EF  1683               	bsf	status, 5	;RP0=1, select bank1
  3663  07F0  1303               	bcf	status, 6	;RP1=0, select bank1
  3664  07F1  0833               	movf	(_mode)^080h,w
  3665                           	; Switch size 1, requested type "space"
  3666                           ; Number of cases is 3, Range of values is 0 to 2
  3667                           ; switch strategies available:
  3668                           ; Name         Instructions Cycles
  3669                           ; simple_byte           10     6 (average)
  3670                           ; direct_byte           17     8 (fixed)
  3671                           ; jumptable            260     6 (fixed)
  3672                           ; rangetable             7     6 (fixed)
  3673                           ; spacedrange           12     9 (fixed)
  3674                           ; locatedrange           3     3 (fixed)
  3675                           ;	Chosen strategy is simple_byte
  3676                           
  3677                           	opt asmopt_off
  3678  07F2  3A00               	xorlw	0^0	; case 0
  3679  07F3  1903               	skipnz
  3680  07F4  2ED5               	goto	l5534
  3681  07F5  3A01               	xorlw	1^0	; case 1
  3682  07F6  1903               	skipnz
  3683  07F7  2F32               	goto	l5538
  3684  07F8  3A03               	xorlw	2^1	; case 2
  3685  07F9  1903               	skipnz
  3686  07FA  2F90               	goto	l5542
  3687  07FB  2B26               	goto	l5454
  3688                           	opt asmopt_on
  3689                           
  3690                           	line	225
  3691                           	
  3692  07FC                     l1186:	
  3693  07FC  2B26               	goto	l5454
  3694                           	line	226
  3695                           	
  3696  07FD                     l1179:	
  3697  07FD  2B26               	goto	l5454
  3698                           	line	229
  3699                           	
  3700  07FE                     l1191:	
  3701                           	line	171
  3702  07FE  2B26               	goto	l5454
  3703                           	
  3704  07FF                     l1170:	
  3705                           	line	231
  3706                           	
  3707  07FF                     l1192:	
  3708  07FF  0008               	return
  3709                           	opt stack 0
  3710                           GLOBAL	__end_of_PID_MENU
  3711  0800                     	__end_of_PID_MENU:
  3712 ;; =============== function _PID_MENU ends ============
  3713                           
  3714                           	signat	_PID_MENU,88
  3715                           	global	_LSA08_Init
  3716                           psect	text796,local,class=CODE,delta=2
  3717                           global __ptext796
  3718  08E5                     __ptext796:
  3719                           
  3720 ;; *************** function _LSA08_Init *****************
  3721 ;; Defined at:
  3722 ;;		line 255 in file "LSA08.h"
  3723 ;; Parameters:    Size  Location     Type
  3724 ;;		None
  3725 ;; Auto vars:     Size  Location     Type
  3726 ;;		None
  3727 ;; Return value:  Size  Location     Type
  3728 ;;                  1    wreg      unsigned char 
  3729 ;; Registers used:
  3730 ;;		wreg, status,2, status,0, pclath, cstack
  3731 ;; Tracked objects:
  3732 ;;		On entry : 0/0
  3733 ;;		On exit  : 0/0
  3734 ;;		Unchanged: 0/0
  3735 ;; Data sizes:     COMMON   BANK0   BANK1   BANK3   BANK2
  3736 ;;      Params:         0       0       0       0       0
  3737 ;;      Locals:         0       0       0       0       0
  3738 ;;      Temps:          0       0       0       0       0
  3739 ;;      Totals:         0       0       0       0       0
  3740 ;;Total ram usage:        0 bytes
  3741 ;; Hardware stack levels used:    1
  3742 ;; Hardware stack levels required when called:    4
  3743 ;; This function calls:
  3744 ;;		_UART_INIT
  3745 ;;		_LSA08_ClearJunction
  3746 ;;		_LSA08_UARTMode
  3747 ;; This function is called by:
  3748 ;;		_main
  3749 ;; This function uses a non-reentrant model
  3750 ;;
  3751                           psect	text796
  3752                           	file	"LSA08.h"
  3753                           	line	255
  3754                           	global	__size_of_LSA08_Init
  3755  0015                     	__size_of_LSA08_Init	equ	__end_of_LSA08_Init-_LSA08_Init
  3756                           	
  3757  08E5                     _LSA08_Init:	
  3758                           	opt	stack 3
  3759                           ; Regs used in _LSA08_Init: [wreg+status,2+status,0+pclath+cstack]
  3760                           	line	257
  3761                           	
  3762  08E5                     l5446:	
  3763                           ;LSA08.h: 257: UART_INIT();
  3764  08E5  120A  158A  20FA   	fcall	_UART_INIT
              120A  158A         
  3765                           	line	259
  3766                           	
  3767  08EA                     l5448:	
  3768                           ;LSA08.h: 259: PORTCbits.RC5=1;
  3769  08EA  1283               	bcf	status, 5	;RP0=0, select bank0
  3770  08EB  1303               	bcf	status, 6	;RP1=0, select bank0
  3771  08EC  1687               	bsf	(7),5	;volatile
  3772                           	line	261
  3773                           ;LSA08.h: 261: LSA08_ClearJunction();
  3774  08ED  120A  158A  20AB   	fcall	_LSA08_ClearJunction
              120A  158A         
  3775                           	line	262
  3776                           ;LSA08.h: 262: return(LSA08_UARTMode(2));
  3777                           ;	Return value of _LSA08_Init is never used
  3778  08F2  3002               	movlw	(02h)
  3779  08F3  120A  158A  2182   	fcall	_LSA08_UARTMode
              120A  158A         
  3780  08F8  28F9               	goto	l1100
  3781                           	
  3782  08F9                     l5450:	
  3783                           	line	264
  3784                           	
  3785  08F9                     l1100:	
  3786  08F9  0008               	return
  3787                           	opt stack 0
  3788                           GLOBAL	__end_of_LSA08_Init
  3789  08FA                     	__end_of_LSA08_Init:
  3790 ;; =============== function _LSA08_Init ends ============
  3791                           
  3792                           	signat	_LSA08_Init,89
  3793                           	global	_lcd_num
  3794                           psect	text797,local,class=CODE,delta=2
  3795                           global __ptext797
  3796  0D86                     __ptext797:
  3797                           
  3798 ;; *************** function _lcd_num *****************
  3799 ;; Defined at:
  3800 ;;		line 400 in file "Main.c"
  3801 ;; Parameters:    Size  Location     Type
  3802 ;;  number          2   50[BANK0 ] unsigned short 
  3803 ;;  digit           1   52[BANK0 ] unsigned char 
  3804 ;; Auto vars:     Size  Location     Type
  3805 ;;  num            16   57[BANK0 ] unsigned char [16]
  3806 ;;  i               1   75[BANK0 ] unsigned char 
  3807 ;;  k               1   74[BANK0 ] unsigned char 
  3808 ;;  j               1   73[BANK0 ] unsigned char 
  3809 ;; Return value:  Size  Location     Type
  3810 ;;                  1    wreg      unsigned char 
  3811 ;; Registers used:
  3812 ;;		wreg, fsr0l, fsr0h, status,2, status,0, btemp+1, pclath, cstack
  3813 ;; Tracked objects:
  3814 ;;		On entry : 0/0
  3815 ;;		On exit  : 0/0
  3816 ;;		Unchanged: 0/0
  3817 ;; Data sizes:     COMMON   BANK0   BANK1   BANK3   BANK2
  3818 ;;      Params:         0       3       0       0       0
  3819 ;;      Locals:         0      19       0       0       0
  3820 ;;      Temps:          0       4       0       0       0
  3821 ;;      Totals:         0      26       0       0       0
  3822 ;;Total ram usage:       26 bytes
  3823 ;; Hardware stack levels used:    1
  3824 ;; Hardware stack levels required when called:    3
  3825 ;; This function calls:
  3826 ;;		___lwmod
  3827 ;;		___lwdiv
  3828 ;;		_send_string
  3829 ;;		_send_char
  3830 ;; This function is called by:
  3831 ;;		_PID_MENU
  3832 ;; This function uses a non-reentrant model
  3833 ;;
  3834                           psect	text797
  3835                           	file	"Main.c"
  3836                           	line	400
  3837                           	global	__size_of_lcd_num
  3838  008E                     	__size_of_lcd_num	equ	__end_of_lcd_num-_lcd_num
  3839                           	
  3840  0D86                     _lcd_num:	
  3841                           	opt	stack 3
  3842                           ; Regs used in _lcd_num: [wreg-fsr0h+status,2+status,0+btemp+1+pclath+cstack]
  3843                           	line	402
  3844                           	
  3845  0D86                     l5418:	
  3846                           ;Main.c: 401: unsigned char num[16];
  3847                           ;Main.c: 402: unsigned char k=digit-1;
  3848  0D86  1283               	bcf	status, 5	;RP0=0, select bank0
  3849  0D87  1303               	bcf	status, 6	;RP1=0, select bank0
  3850  0D88  0854               	movf	(lcd_num@digit),w
  3851  0D89  3EFF               	addlw	0FFh
  3852  0D8A  00D5               	movwf	(??_lcd_num+0)+0
  3853  0D8B  0855               	movf	(??_lcd_num+0)+0,w
  3854  0D8C  00EA               	movwf	(lcd_num@k)
  3855                           	line	405
  3856                           	
  3857  0D8D                     l5420:	
  3858                           ;Main.c: 403: unsigned char i,j;
  3859                           ;Main.c: 405: num[digit]=0;
  3860  0D8D  0854               	movf	(lcd_num@digit),w
  3861  0D8E  3E59               	addlw	lcd_num@num&0ffh
  3862  0D8F  0084               	movwf	fsr0
  3863  0D90  1383               	bcf	status, 7	;select IRP bank0
  3864  0D91  0180               	clrf	indf
  3865                           	line	407
  3866                           	
  3867  0D92                     l5422:	
  3868                           ;Main.c: 407: for(i=0;i<digit;i++){
  3869  0D92  01EB               	clrf	(lcd_num@i)
  3870  0D93  2DD4               	goto	l5434
  3871                           	
  3872  0D94                     l1255:	
  3873                           	line	408
  3874                           	
  3875  0D94                     l5424:	
  3876                           ;Main.c: 408: num[k-i]=number%10+'0';
  3877  0D94  300A               	movlw	low(0Ah)
  3878  0D95  00F0               	movwf	(?___lwmod)
  3879  0D96  3000               	movlw	high(0Ah)
  3880  0D97  00F1               	movwf	((?___lwmod))+1
  3881  0D98  0853               	movf	(lcd_num@number+1),w
  3882  0D99  01F3               	clrf	1+(?___lwmod)+02h
  3883  0D9A  07F3               	addwf	1+(?___lwmod)+02h
  3884  0D9B  0852               	movf	(lcd_num@number),w
  3885  0D9C  01F2               	clrf	0+(?___lwmod)+02h
  3886  0D9D  07F2               	addwf	0+(?___lwmod)+02h
  3887                           
  3888  0D9E  120A  158A  2333   	fcall	___lwmod
              120A  158A         
  3889  0DA3  0870               	movf	(0+(?___lwmod)),w
  3890  0DA4  3E30               	addlw	030h
  3891  0DA5  1283               	bcf	status, 5	;RP0=0, select bank0
  3892  0DA6  1303               	bcf	status, 6	;RP1=0, select bank0
  3893  0DA7  00D5               	movwf	(??_lcd_num+0)+0
  3894  0DA8  036B               	decf	(lcd_num@i),w
  3895  0DA9  3AFF               	xorlw	0ffh
  3896  0DAA  076A               	addwf	(lcd_num@k),w
  3897  0DAB  3E59               	addlw	lcd_num@num&0ffh
  3898  0DAC  0084               	movwf	fsr0
  3899  0DAD  0855               	movf	(??_lcd_num+0)+0,w
  3900  0DAE  1383               	bcf	status, 7	;select IRP bank0
  3901  0DAF  0080               	movwf	indf
  3902                           	line	409
  3903                           	
  3904  0DB0                     l5426:	
  3905                           ;Main.c: 409: number=number/10;
  3906  0DB0  300A               	movlw	low(0Ah)
  3907  0DB1  00F0               	movwf	(?___lwdiv)
  3908  0DB2  3000               	movlw	high(0Ah)
  3909  0DB3  00F1               	movwf	((?___lwdiv))+1
  3910  0DB4  0853               	movf	(lcd_num@number+1),w
  3911  0DB5  01F3               	clrf	1+(?___lwdiv)+02h
  3912  0DB6  07F3               	addwf	1+(?___lwdiv)+02h
  3913  0DB7  0852               	movf	(lcd_num@number),w
  3914  0DB8  01F2               	clrf	0+(?___lwdiv)+02h
  3915  0DB9  07F2               	addwf	0+(?___lwdiv)+02h
  3916                           
  3917  0DBA  120A  158A  2377   	fcall	___lwdiv
              120A  158A         
  3918  0DBF  0871               	movf	(1+(?___lwdiv)),w
  3919  0DC0  1283               	bcf	status, 5	;RP0=0, select bank0
  3920  0DC1  1303               	bcf	status, 6	;RP1=0, select bank0
  3921  0DC2  01D3               	clrf	(lcd_num@number+1)
  3922  0DC3  07D3               	addwf	(lcd_num@number+1)
  3923  0DC4  0870               	movf	(0+(?___lwdiv)),w
  3924  0DC5  01D2               	clrf	(lcd_num@number)
  3925  0DC6  07D2               	addwf	(lcd_num@number)
  3926                           
  3927                           	line	410
  3928                           	
  3929  0DC7                     l5428:	
  3930                           ;Main.c: 410: if(number==0) break;
  3931  0DC7  0853               	movf	((lcd_num@number+1)),w
  3932  0DC8  0452               	iorwf	((lcd_num@number)),w
  3933  0DC9  1D03               	skipz
  3934  0DCA  2DCC               	goto	u3911
  3935  0DCB  2DCD               	goto	u3910
  3936  0DCC                     u3911:
  3937  0DCC  2DCF               	goto	l5432
  3938  0DCD                     u3910:
  3939  0DCD  2DDB               	goto	l5436
  3940                           	
  3941  0DCE                     l5430:	
  3942  0DCE  2DDB               	goto	l5436
  3943                           	
  3944  0DCF                     l1256:	
  3945                           	line	407
  3946                           	
  3947  0DCF                     l5432:	
  3948  0DCF  3001               	movlw	(01h)
  3949  0DD0  00D5               	movwf	(??_lcd_num+0)+0
  3950  0DD1  0855               	movf	(??_lcd_num+0)+0,w
  3951  0DD2  07EB               	addwf	(lcd_num@i),f
  3952  0DD3  2DD4               	goto	l5434
  3953                           	
  3954  0DD4                     l1254:	
  3955                           	
  3956  0DD4                     l5434:	
  3957  0DD4  0854               	movf	(lcd_num@digit),w
  3958  0DD5  026B               	subwf	(lcd_num@i),w
  3959  0DD6  1C03               	skipc
  3960  0DD7  2DD9               	goto	u3921
  3961  0DD8  2DDA               	goto	u3920
  3962  0DD9                     u3921:
  3963  0DD9  2D94               	goto	l5424
  3964  0DDA                     u3920:
  3965  0DDA  2DDB               	goto	l5436
  3966                           	
  3967  0DDB                     l1257:	
  3968                           	line	413
  3969                           	
  3970  0DDB                     l5436:	
  3971                           ;Main.c: 411: }
  3972                           ;Main.c: 413: send_string(&num[k-i]);
  3973  0DDB  036B               	decf	(lcd_num@i),w
  3974  0DDC  3AFF               	xorlw	0ffh
  3975  0DDD  076A               	addwf	(lcd_num@k),w
  3976  0DDE  3E59               	addlw	lcd_num@num&0ffh
  3977  0DDF  00F9               	movwf	(?_send_string)
  3978  0DE0  3000               	movlw	(0x0/2)
  3979  0DE1  00FA               	movwf	(?_send_string+1)
  3980  0DE2  120A  158A  2302   	fcall	_send_string
              120A  158A         
  3981                           	line	415
  3982                           	
  3983  0DE7                     l5438:	
  3984                           ;Main.c: 415: for(j=0;j<k-i;j++)
  3985  0DE7  1283               	bcf	status, 5	;RP0=0, select bank0
  3986  0DE8  1303               	bcf	status, 6	;RP1=0, select bank0
  3987  0DE9  01E9               	clrf	(lcd_num@j)
  3988  0DEA  2DF8               	goto	l5444
  3989                           	line	416
  3990                           	
  3991  0DEB                     l1259:	
  3992                           	
  3993  0DEB                     l5440:	
  3994                           ;Main.c: 416: send_char(' ');
  3995  0DEB  3020               	movlw	(020h)
  3996  0DEC  120A  158A  21E2   	fcall	_send_char
              120A  158A         
  3997                           	line	415
  3998                           	
  3999  0DF1                     l5442:	
  4000  0DF1  3001               	movlw	(01h)
  4001  0DF2  1283               	bcf	status, 5	;RP0=0, select bank0
  4002  0DF3  1303               	bcf	status, 6	;RP1=0, select bank0
  4003  0DF4  00D5               	movwf	(??_lcd_num+0)+0
  4004  0DF5  0855               	movf	(??_lcd_num+0)+0,w
  4005  0DF6  07E9               	addwf	(lcd_num@j),f
  4006  0DF7  2DF8               	goto	l5444
  4007                           	
  4008  0DF8                     l1258:	
  4009                           	
  4010  0DF8                     l5444:	
  4011  0DF8  086B               	movf	(lcd_num@i),w
  4012  0DF9  00D5               	movwf	(??_lcd_num+0)+0
  4013  0DFA  01D6               	clrf	(??_lcd_num+0)+0+1
  4014  0DFB  09D5               	comf	(??_lcd_num+0)+0,f
  4015  0DFC  09D6               	comf	(??_lcd_num+0)+1,f
  4016  0DFD  0AD5               	incf	(??_lcd_num+0)+0,f
  4017  0DFE  1903               	skipnz
  4018  0DFF  0AD6               	incf	(??_lcd_num+0)+1,f
  4019  0E00  086A               	movf	(lcd_num@k),w
  4020  0E01  0755               	addwf	0+(??_lcd_num+0)+0,w
  4021  0E02  00D7               	movwf	(??_lcd_num+2)+0
  4022  0E03  0856               	movf	1+(??_lcd_num+0)+0,w
  4023  0E04  1803               	skipnc
  4024  0E05  0A56               	incf	1+(??_lcd_num+0)+0,w
  4025  0E06  00D8               	movwf	((??_lcd_num+2)+0)+1
  4026  0E07  0858               	movf	1+(??_lcd_num+2)+0,w
  4027  0E08  3A80               	xorlw	80h
  4028  0E09  3C80               	sublw	080h
  4029  0E0A  1D03               	skipz
  4030  0E0B  2E0E               	goto	u3935
  4031  0E0C  0857               	movf	0+(??_lcd_num+2)+0,w
  4032  0E0D  0269               	subwf	(lcd_num@j),w
  4033  0E0E                     u3935:
  4034                           
  4035  0E0E  1C03               	skipc
  4036  0E0F  2E11               	goto	u3931
  4037  0E10  2E12               	goto	u3930
  4038  0E11                     u3931:
  4039  0E11  2DEB               	goto	l5440
  4040  0E12                     u3930:
  4041  0E12  2E13               	goto	l1261
  4042                           	
  4043  0E13                     l1260:	
  4044                           	line	419
  4045                           ;Main.c: 418: return(i);
  4046                           ;	Return value of _lcd_num is never used
  4047                           	
  4048  0E13                     l1261:	
  4049  0E13  0008               	return
  4050                           	opt stack 0
  4051                           GLOBAL	__end_of_lcd_num
  4052  0E14                     	__end_of_lcd_num:
  4053 ;; =============== function _lcd_num ends ============
  4054                           
  4055                           	signat	_lcd_num,8313
  4056                           	global	_lcdinit
  4057                           psect	text798,local,class=CODE,delta=2
  4058                           global __ptext798
  4059  0A51                     __ptext798:
  4060                           
  4061 ;; *************** function _lcdinit *****************
  4062 ;; Defined at:
  4063 ;;		line 334 in file "Main.c"
  4064 ;; Parameters:    Size  Location     Type
  4065 ;;		None
  4066 ;; Auto vars:     Size  Location     Type
  4067 ;;		None
  4068 ;; Return value:  Size  Location     Type
  4069 ;;		None               void
  4070 ;; Registers used:
  4071 ;;		wreg, status,2, status,0, pclath, cstack
  4072 ;; Tracked objects:
  4073 ;;		On entry : 0/0
  4074 ;;		On exit  : 0/0
  4075 ;;		Unchanged: 0/0
  4076 ;; Data sizes:     COMMON   BANK0   BANK1   BANK3   BANK2
  4077 ;;      Params:         0       0       0       0       0
  4078 ;;      Locals:         0       0       0       0       0
  4079 ;;      Temps:          0       0       0       0       0
  4080 ;;      Totals:         0       0       0       0       0
  4081 ;;Total ram usage:        0 bytes
  4082 ;; Hardware stack levels used:    1
  4083 ;; Hardware stack levels required when called:    3
  4084 ;; This function calls:
  4085 ;;		_send_config
  4086 ;;		_lcd_clr
  4087 ;; This function is called by:
  4088 ;;		_main
  4089 ;; This function uses a non-reentrant model
  4090 ;;
  4091                           psect	text798
  4092                           	file	"Main.c"
  4093                           	line	334
  4094                           	global	__size_of_lcdinit
  4095  0029                     	__size_of_lcdinit	equ	__end_of_lcdinit-_lcdinit
  4096                           	
  4097  0A51                     _lcdinit:	
  4098                           	opt	stack 4
  4099                           ; Regs used in _lcdinit: [wreg+status,2+status,0+pclath+cstack]
  4100                           	line	336
  4101                           	
  4102  0A51                     l5400:	
  4103                           ;Main.c: 336: TRISD=0x00;
  4104  0A51  1683               	bsf	status, 5	;RP0=1, select bank1
  4105  0A52  1303               	bcf	status, 6	;RP1=0, select bank1
  4106  0A53  0188               	clrf	(136)^080h	;volatile
  4107                           	line	337
  4108                           	
  4109  0A54                     l5402:	
  4110                           ;Main.c: 337: TRISB4=0;
  4111  0A54  1206               	bcf	(1076/8)^080h,(1076)&7
  4112                           	line	338
  4113                           	
  4114  0A55                     l5404:	
  4115                           ;Main.c: 338: TRISB5=0;
  4116  0A55  1286               	bcf	(1077/8)^080h,(1077)&7
  4117                           	line	340
  4118                           	
  4119  0A56                     l5406:	
  4120                           ;Main.c: 340: send_config(0b00000001);
  4121  0A56  3001               	movlw	(01h)
  4122  0A57  120A  158A  2207   	fcall	_send_config
              120A  158A         
  4123                           	line	341
  4124                           	
  4125  0A5C                     l5408:	
  4126                           ;Main.c: 341: send_config(0b00000010);
  4127  0A5C  3002               	movlw	(02h)
  4128  0A5D  120A  158A  2207   	fcall	_send_config
              120A  158A         
  4129                           	line	342
  4130                           	
  4131  0A62                     l5410:	
  4132                           ;Main.c: 342: send_config(0b00000110);
  4133  0A62  3006               	movlw	(06h)
  4134  0A63  120A  158A  2207   	fcall	_send_config
              120A  158A         
  4135                           	line	343
  4136                           	
  4137  0A68                     l5412:	
  4138                           ;Main.c: 343: send_config(0b00001100);
  4139  0A68  300C               	movlw	(0Ch)
  4140  0A69  120A  158A  2207   	fcall	_send_config
              120A  158A         
  4141                           	line	344
  4142                           	
  4143  0A6E                     l5414:	
  4144                           ;Main.c: 344: send_config(0b00111000);
  4145  0A6E  3038               	movlw	(038h)
  4146  0A6F  120A  158A  2207   	fcall	_send_config
              120A  158A         
  4147                           	line	347
  4148                           	
  4149  0A74                     l5416:	
  4150                           ;Main.c: 347: lcd_clr();
  4151  0A74  120A  158A  20D1   	fcall	_lcd_clr
              120A  158A         
  4152                           	line	349
  4153                           	
  4154  0A79                     l1224:	
  4155  0A79  0008               	return
  4156                           	opt stack 0
  4157                           GLOBAL	__end_of_lcdinit
  4158  0A7A                     	__end_of_lcdinit:
  4159 ;; =============== function _lcdinit ends ============
  4160                           
  4161                           	signat	_lcdinit,88
  4162                           	global	_LSA08_UARTMode
  4163                           psect	text799,local,class=CODE,delta=2
  4164                           global __ptext799
  4165  0982                     __ptext799:
  4166                           
  4167 ;; *************** function _LSA08_UARTMode *****************
  4168 ;; Defined at:
  4169 ;;		line 362 in file "LSA08.h"
  4170 ;; Parameters:    Size  Location     Type
  4171 ;;  mode            1    wreg     unsigned char 
  4172 ;; Auto vars:     Size  Location     Type
  4173 ;;  mode            1   13[COMMON] unsigned char 
  4174 ;; Return value:  Size  Location     Type
  4175 ;;                  1    wreg      unsigned char 
  4176 ;; Registers used:
  4177 ;;		wreg, status,2, status,0, pclath, cstack
  4178 ;; Tracked objects:
  4179 ;;		On entry : 0/0
  4180 ;;		On exit  : 0/0
  4181 ;;		Unchanged: 0/0
  4182 ;; Data sizes:     COMMON   BANK0   BANK1   BANK3   BANK2
  4183 ;;      Params:         0       0       0       0       0
  4184 ;;      Locals:         1       0       0       0       0
  4185 ;;      Temps:          0       3       0       0       0
  4186 ;;      Totals:         1       3       0       0       0
  4187 ;;Total ram usage:        4 bytes
  4188 ;; Hardware stack levels used:    1
  4189 ;; Hardware stack levels required when called:    3
  4190 ;; This function calls:
  4191 ;;		_SEND_PACKET
  4192 ;; This function is called by:
  4193 ;;		_LSA08_Init
  4194 ;; This function uses a non-reentrant model
  4195 ;;
  4196                           psect	text799
  4197                           	file	"LSA08.h"
  4198                           	line	362
  4199                           	global	__size_of_LSA08_UARTMode
  4200  001F                     	__size_of_LSA08_UARTMode	equ	__end_of_LSA08_UARTMode-_LSA08_UARTMode
  4201                           	
  4202  0982                     _LSA08_UARTMode:	
  4203                           	opt	stack 3
  4204                           ; Regs used in _LSA08_UARTMode: [wreg+status,2+status,0+pclath+cstack]
  4205                           ;LSA08_UARTMode@mode stored from wreg
  4206                           	line	364
  4207  0982  00FD               	movwf	(LSA08_UARTMode@mode)
  4208                           	
  4209  0983                     l5392:	
  4210                           ;LSA08.h: 364: if(mode>3) mode=0;
  4211  0983  3004               	movlw	(04h)
  4212  0984  027D               	subwf	(LSA08_UARTMode@mode),w
  4213  0985  1C03               	skipc
  4214  0986  2988               	goto	u3901
  4215  0987  2989               	goto	u3900
  4216  0988                     u3901:
  4217  0988  298B               	goto	l5396
  4218  0989                     u3900:
  4219                           	
  4220  0989                     l5394:	
  4221  0989  01FD               	clrf	(LSA08_UARTMode@mode)
  4222  098A  298B               	goto	l5396
  4223                           	
  4224  098B                     l1130:	
  4225                           	line	365
  4226                           	
  4227  098B                     l5396:	
  4228                           ;LSA08.h: 365: return(SEND_PACKET(LSA08_ADD, 'D', mode,2));
  4229  098B  3044               	movlw	(044h)
  4230  098C  1283               	bcf	status, 5	;RP0=0, select bank0
  4231  098D  1303               	bcf	status, 6	;RP1=0, select bank0
  4232  098E  00A0               	movwf	(??_LSA08_UARTMode+0)+0
  4233  098F  0820               	movf	(??_LSA08_UARTMode+0)+0,w
  4234  0990  00F8               	movwf	(?_SEND_PACKET)
  4235  0991  087D               	movf	(LSA08_UARTMode@mode),w
  4236  0992  00A1               	movwf	(??_LSA08_UARTMode+1)+0
  4237  0993  0821               	movf	(??_LSA08_UARTMode+1)+0,w
  4238  0994  00F9               	movwf	0+(?_SEND_PACKET)+01h
  4239  0995  3002               	movlw	(02h)
  4240  0996  00A2               	movwf	(??_LSA08_UARTMode+2)+0
  4241  0997  0822               	movf	(??_LSA08_UARTMode+2)+0,w
  4242  0998  00FA               	movwf	0+(?_SEND_PACKET)+02h
  4243  0999  086F               	movf	(_LSA08_ADD),w
  4244  099A  120A  158A  222C   	fcall	_SEND_PACKET
              120A  158A         
  4245  099F  29A0               	goto	l1131
  4246                           	
  4247  09A0                     l5398:	
  4248                           	line	366
  4249                           	
  4250  09A0                     l1131:	
  4251  09A0  0008               	return
  4252                           	opt stack 0
  4253                           GLOBAL	__end_of_LSA08_UARTMode
  4254  09A1                     	__end_of_LSA08_UARTMode:
  4255 ;; =============== function _LSA08_UARTMode ends ============
  4256                           
  4257                           	signat	_LSA08_UARTMode,4217
  4258                           	global	_LSA08_ClearJunction
  4259                           psect	text800,local,class=CODE,delta=2
  4260                           global __ptext800
  4261  08AB                     __ptext800:
  4262                           
  4263 ;; *************** function _LSA08_ClearJunction *****************
  4264 ;; Defined at:
  4265 ;;		line 333 in file "LSA08.h"
  4266 ;; Parameters:    Size  Location     Type
  4267 ;;		None
  4268 ;; Auto vars:     Size  Location     Type
  4269 ;;		None
  4270 ;; Return value:  Size  Location     Type
  4271 ;;                  1    wreg      unsigned char 
  4272 ;; Registers used:
  4273 ;;		wreg, status,2, status,0, pclath, cstack
  4274 ;; Tracked objects:
  4275 ;;		On entry : 0/0
  4276 ;;		On exit  : 0/0
  4277 ;;		Unchanged: 0/0
  4278 ;; Data sizes:     COMMON   BANK0   BANK1   BANK3   BANK2
  4279 ;;      Params:         0       0       0       0       0
  4280 ;;      Locals:         0       0       0       0       0
  4281 ;;      Temps:          0       2       0       0       0
  4282 ;;      Totals:         0       2       0       0       0
  4283 ;;Total ram usage:        2 bytes
  4284 ;; Hardware stack levels used:    1
  4285 ;; Hardware stack levels required when called:    3
  4286 ;; This function calls:
  4287 ;;		_SEND_PACKET
  4288 ;; This function is called by:
  4289 ;;		_LSA08_Init
  4290 ;; This function uses a non-reentrant model
  4291 ;;
  4292                           psect	text800
  4293                           	file	"LSA08.h"
  4294                           	line	333
  4295                           	global	__size_of_LSA08_ClearJunction
  4296  0013                     	__size_of_LSA08_ClearJunction	equ	__end_of_LSA08_ClearJunction-_LSA08_ClearJunction
  4297                           	
  4298  08AB                     _LSA08_ClearJunction:	
  4299                           	opt	stack 3
  4300                           ; Regs used in _LSA08_ClearJunction: [wreg+status,2+status,0+pclath+cstack]
  4301                           	line	335
  4302                           	
  4303  08AB                     l5388:	
  4304                           ;LSA08.h: 335: return(SEND_PACKET(LSA08_ADD, 'X', 0,2));
  4305                           ;	Return value of _LSA08_ClearJunction is never used
  4306  08AB  3058               	movlw	(058h)
  4307  08AC  1283               	bcf	status, 5	;RP0=0, select bank0
  4308  08AD  1303               	bcf	status, 6	;RP1=0, select bank0
  4309  08AE  00A0               	movwf	(??_LSA08_ClearJunction+0)+0
  4310  08AF  0820               	movf	(??_LSA08_ClearJunction+0)+0,w
  4311  08B0  00F8               	movwf	(?_SEND_PACKET)
  4312  08B1  01F9               	clrf	0+(?_SEND_PACKET)+01h
  4313  08B2  3002               	movlw	(02h)
  4314  08B3  00A1               	movwf	(??_LSA08_ClearJunction+1)+0
  4315  08B4  0821               	movf	(??_LSA08_ClearJunction+1)+0,w
  4316  08B5  00FA               	movwf	0+(?_SEND_PACKET)+02h
  4317  08B6  086F               	movf	(_LSA08_ADD),w
  4318  08B7  120A  158A  222C   	fcall	_SEND_PACKET
              120A  158A         
  4319  08BC  28BD               	goto	l1112
  4320                           	
  4321  08BD                     l5390:	
  4322                           	line	337
  4323                           	
  4324  08BD                     l1112:	
  4325  08BD  0008               	return
  4326                           	opt stack 0
  4327                           GLOBAL	__end_of_LSA08_ClearJunction
  4328  08BE                     	__end_of_LSA08_ClearJunction:
  4329 ;; =============== function _LSA08_ClearJunction ends ============
  4330                           
  4331                           	signat	_LSA08_ClearJunction,89
  4332                           	global	___ftsub
  4333                           psect	text801,local,class=CODE,delta=2
  4334                           global __ptext801
  4335  0963                     __ptext801:
  4336                           
  4337 ;; *************** function ___ftsub *****************
  4338 ;; Defined at:
  4339 ;;		line 17 in file "C:\Program Files\HI-TECH Software\PICC\9.83\sources\ftsub.c"
  4340 ;; Parameters:    Size  Location     Type
  4341 ;;  f2              3   50[BANK0 ] float 
  4342 ;;  f1              3   53[BANK0 ] float 
  4343 ;; Auto vars:     Size  Location     Type
  4344 ;;		None
  4345 ;; Return value:  Size  Location     Type
  4346 ;;                  3   50[BANK0 ] float 
  4347 ;; Registers used:
  4348 ;;		wreg, status,2, status,0, pclath, cstack
  4349 ;; Tracked objects:
  4350 ;;		On entry : 0/0
  4351 ;;		On exit  : 0/0
  4352 ;;		Unchanged: 0/0
  4353 ;; Data sizes:     COMMON   BANK0   BANK1   BANK3   BANK2
  4354 ;;      Params:         0       6       0       0       0
  4355 ;;      Locals:         0       0       0       0       0
  4356 ;;      Temps:          0       0       0       0       0
  4357 ;;      Totals:         0       6       0       0       0
  4358 ;;Total ram usage:        6 bytes
  4359 ;; Hardware stack levels used:    1
  4360 ;; Hardware stack levels required when called:    2
  4361 ;; This function calls:
  4362 ;;		___ftadd
  4363 ;; This function is called by:
  4364 ;;		_PID_MENU
  4365 ;; This function uses a non-reentrant model
  4366 ;;
  4367                           psect	text801
  4368                           	file	"C:\Program Files\HI-TECH Software\PICC\9.83\sources\ftsub.c"
  4369                           	line	17
  4370                           	global	__size_of___ftsub
  4371  001F                     	__size_of___ftsub	equ	__end_of___ftsub-___ftsub
  4372                           	
  4373  0963                     ___ftsub:	
  4374                           	opt	stack 4
  4375                           ; Regs used in ___ftsub: [wreg+status,2+status,0+pclath+cstack]
  4376                           	line	18
  4377                           	
  4378  0963                     l5382:	
  4379  0963  3080               	movlw	080h
  4380  0964  1283               	bcf	status, 5	;RP0=0, select bank0
  4381  0965  1303               	bcf	status, 6	;RP1=0, select bank0
  4382  0966  06D4               	xorwf	(___ftsub@f2+2),f
  4383                           	line	19
  4384                           	
  4385  0967                     l5384:	
  4386  0967  0855               	movf	(___ftsub@f1),w
  4387  0968  00C5               	movwf	(?___ftadd)
  4388  0969  0856               	movf	(___ftsub@f1+1),w
  4389  096A  00C6               	movwf	(?___ftadd+1)
  4390  096B  0857               	movf	(___ftsub@f1+2),w
  4391  096C  00C7               	movwf	(?___ftadd+2)
  4392  096D  0852               	movf	(___ftsub@f2),w
  4393  096E  00C8               	movwf	0+(?___ftadd)+03h
  4394  096F  0853               	movf	(___ftsub@f2+1),w
  4395  0970  00C9               	movwf	1+(?___ftadd)+03h
  4396  0971  0854               	movf	(___ftsub@f2+2),w
  4397  0972  00CA               	movwf	2+(?___ftadd)+03h
  4398  0973  120A  158A  26BA   	fcall	___ftadd
              120A  158A         
  4399  0978  1283               	bcf	status, 5	;RP0=0, select bank0
  4400  0979  1303               	bcf	status, 6	;RP1=0, select bank0
  4401  097A  0845               	movf	(0+(?___ftadd)),w
  4402  097B  00D2               	movwf	(?___ftsub)
  4403  097C  0846               	movf	(1+(?___ftadd)),w
  4404  097D  00D3               	movwf	(?___ftsub+1)
  4405  097E  0847               	movf	(2+(?___ftadd)),w
  4406  097F  00D4               	movwf	(?___ftsub+2)
  4407  0980  2981               	goto	l2361
  4408                           	
  4409  0981                     l5386:	
  4410                           	line	20
  4411                           	
  4412  0981                     l2361:	
  4413  0981  0008               	return
  4414                           	opt stack 0
  4415                           GLOBAL	__end_of___ftsub
  4416  0982                     	__end_of___ftsub:
  4417 ;; =============== function ___ftsub ends ============
  4418                           
  4419                           	signat	___ftsub,8315
  4420                           	global	_send_string
  4421                           psect	text802,local,class=CODE,delta=2
  4422                           global __ptext802
  4423  0B02                     __ptext802:
  4424                           
  4425 ;; *************** function _send_string *****************
  4426 ;; Defined at:
  4427 ;;		line 395 in file "Main.c"
  4428 ;; Parameters:    Size  Location     Type
  4429 ;;  s               2    9[COMMON] PTR const unsigned char 
  4430 ;;		 -> lcd_num@num(16), STR_7(3), STR_6(3), STR_5(3), 
  4431 ;;		 -> STR_4(15), STR_3(12), STR_2(7), STR_1(10), 
  4432 ;; Auto vars:     Size  Location     Type
  4433 ;;		None
  4434 ;; Return value:  Size  Location     Type
  4435 ;;		None               void
  4436 ;; Registers used:
  4437 ;;		wreg, fsr0l, fsr0h, status,2, status,0, btemp+1, pclath, cstack
  4438 ;; Tracked objects:
  4439 ;;		On entry : 0/0
  4440 ;;		On exit  : 0/0
  4441 ;;		Unchanged: 0/0
  4442 ;; Data sizes:     COMMON   BANK0   BANK1   BANK3   BANK2
  4443 ;;      Params:         2       0       0       0       0
  4444 ;;      Locals:         0       0       0       0       0
  4445 ;;      Temps:          0       0       0       0       0
  4446 ;;      Totals:         2       0       0       0       0
  4447 ;;Total ram usage:        2 bytes
  4448 ;; Hardware stack levels used:    1
  4449 ;; Hardware stack levels required when called:    2
  4450 ;; This function calls:
  4451 ;;		_send_char
  4452 ;; This function is called by:
  4453 ;;		_main
  4454 ;;		_PID_MENU
  4455 ;;		_lcd_num
  4456 ;; This function uses a non-reentrant model
  4457 ;;
  4458                           psect	text802
  4459                           	file	"Main.c"
  4460                           	line	395
  4461                           	global	__size_of_send_string
  4462  0031                     	__size_of_send_string	equ	__end_of_send_string-_send_string
  4463                           	
  4464  0B02                     _send_string:	
  4465                           	opt	stack 5
  4466                           ; Regs used in _send_string: [wreg-fsr0h+status,2+status,0+btemp+1+pclath+cstack]
  4467                           	line	396
  4468                           	
  4469  0B02                     l5372:	
  4470                           ;Main.c: 396: while (s && *s)send_char (*s++);
  4471  0B02  2B1A               	goto	l5378
  4472                           	
  4473  0B03                     l1247:	
  4474                           	
  4475  0B03                     l5374:	
  4476  0B03  087A               	movf	(send_string@s+1),w
  4477  0B04  1283               	bcf	status, 5	;RP0=0, select bank0
  4478  0B05  1303               	bcf	status, 6	;RP1=0, select bank0
  4479  0B06  00FF               	movwf	btemp+1
  4480  0B07  0879               	movf	(send_string@s),w
  4481  0B08  0084               	movwf	fsr0
  4482  0B09  120A  158A  2000   	fcall	stringtab
              120A  158A         
  4483  0B0E  120A  158A  21E2   	fcall	_send_char
              120A  158A         
  4484                           	
  4485  0B13                     l5376:	
  4486  0B13  3001               	movlw	low(01h)
  4487  0B14  07F9               	addwf	(send_string@s),f
  4488  0B15  1803               	skipnc
  4489  0B16  0AFA               	incf	(send_string@s+1),f
  4490  0B17  3000               	movlw	high(01h)
  4491  0B18  07FA               	addwf	(send_string@s+1),f
  4492  0B19  2B1A               	goto	l5378
  4493                           	
  4494  0B1A                     l1246:	
  4495                           	
  4496  0B1A                     l5378:	
  4497  0B1A  087A               	movf	(send_string@s+1),w
  4498  0B1B  0479               	iorwf	(send_string@s),w
  4499  0B1C  1903               	skipnz
  4500  0B1D  2B1F               	goto	u3881
  4501  0B1E  2B20               	goto	u3880
  4502  0B1F                     u3881:
  4503  0B1F  2B32               	goto	l1251
  4504  0B20                     u3880:
  4505                           	
  4506  0B20                     l5380:	
  4507  0B20  087A               	movf	(send_string@s+1),w
  4508  0B21  1283               	bcf	status, 5	;RP0=0, select bank0
  4509  0B22  1303               	bcf	status, 6	;RP1=0, select bank0
  4510  0B23  00FF               	movwf	btemp+1
  4511  0B24  0879               	movf	(send_string@s),w
  4512  0B25  0084               	movwf	fsr0
  4513  0B26  120A  158A  2000   	fcall	stringtab
              120A  158A         
  4514  0B2B  3800               	iorlw	0
  4515  0B2C  1D03               	skipz
  4516  0B2D  2B2F               	goto	u3891
  4517  0B2E  2B30               	goto	u3890
  4518  0B2F                     u3891:
  4519  0B2F  2B03               	goto	l5374
  4520  0B30                     u3890:
  4521  0B30  2B32               	goto	l1251
  4522                           	
  4523  0B31                     l1249:	
  4524  0B31  2B32               	goto	l1251
  4525                           	
  4526  0B32                     l1250:	
  4527                           	line	397
  4528                           	
  4529  0B32                     l1251:	
  4530  0B32  0008               	return
  4531                           	opt stack 0
  4532                           GLOBAL	__end_of_send_string
  4533  0B33                     	__end_of_send_string:
  4534 ;; =============== function _send_string ends ============
  4535                           
  4536                           	signat	_send_string,4216
  4537                           	global	_lcd_goto
  4538                           psect	text803,local,class=CODE,delta=2
  4539                           global __ptext803
  4540  0946                     __ptext803:
  4541                           
  4542 ;; *************** function _lcd_goto *****************
  4543 ;; Defined at:
  4544 ;;		line 376 in file "Main.c"
  4545 ;; Parameters:    Size  Location     Type
  4546 ;;  data            1    wreg     unsigned char 
  4547 ;; Auto vars:     Size  Location     Type
  4548 ;;  data            1   10[COMMON] unsigned char 
  4549 ;; Return value:  Size  Location     Type
  4550 ;;		None               void
  4551 ;; Registers used:
  4552 ;;		wreg, status,2, status,0, pclath, cstack
  4553 ;; Tracked objects:
  4554 ;;		On entry : 0/0
  4555 ;;		On exit  : 0/0
  4556 ;;		Unchanged: 0/0
  4557 ;; Data sizes:     COMMON   BANK0   BANK1   BANK3   BANK2
  4558 ;;      Params:         0       0       0       0       0
  4559 ;;      Locals:         1       0       0       0       0
  4560 ;;      Temps:          1       0       0       0       0
  4561 ;;      Totals:         2       0       0       0       0
  4562 ;;Total ram usage:        2 bytes
  4563 ;; Hardware stack levels used:    1
  4564 ;; Hardware stack levels required when called:    2
  4565 ;; This function calls:
  4566 ;;		_send_config
  4567 ;; This function is called by:
  4568 ;;		_main
  4569 ;;		_PID_MENU
  4570 ;; This function uses a non-reentrant model
  4571 ;;
  4572                           psect	text803
  4573                           	file	"Main.c"
  4574                           	line	376
  4575                           	global	__size_of_lcd_goto
  4576  001D                     	__size_of_lcd_goto	equ	__end_of_lcd_goto-_lcd_goto
  4577                           	
  4578  0946                     _lcd_goto:	
  4579                           	opt	stack 5
  4580                           ; Regs used in _lcd_goto: [wreg+status,2+status,0+pclath+cstack]
  4581                           ;lcd_goto@data stored from wreg
  4582  0946  00FA               	movwf	(lcd_goto@data)
  4583                           	line	377
  4584                           	
  4585  0947                     l5364:	
  4586                           ;Main.c: 377: if(data<16)
  4587  0947  3010               	movlw	(010h)
  4588  0948  027A               	subwf	(lcd_goto@data),w
  4589  0949  1803               	skipnc
  4590  094A  294C               	goto	u3871
  4591  094B  294D               	goto	u3870
  4592  094C                     u3871:
  4593  094C  2955               	goto	l5368
  4594  094D                     u3870:
  4595                           	line	379
  4596                           	
  4597  094D                     l5366:	
  4598                           ;Main.c: 378: {
  4599                           ;Main.c: 379: send_config(0x80+data);
  4600  094D  087A               	movf	(lcd_goto@data),w
  4601  094E  3E80               	addlw	080h
  4602  094F  120A  158A  2207   	fcall	_send_config
              120A  158A         
  4603                           	line	380
  4604                           ;Main.c: 380: }
  4605  0954  2962               	goto	l1240
  4606                           	line	381
  4607                           	
  4608  0955                     l1238:	
  4609                           	line	383
  4610                           	
  4611  0955                     l5368:	
  4612                           ;Main.c: 381: else
  4613                           ;Main.c: 382: {
  4614                           ;Main.c: 383: data=data-20;
  4615  0955  087A               	movf	(lcd_goto@data),w
  4616  0956  3EEC               	addlw	0ECh
  4617  0957  00F9               	movwf	(??_lcd_goto+0)+0
  4618  0958  0879               	movf	(??_lcd_goto+0)+0,w
  4619  0959  00FA               	movwf	(lcd_goto@data)
  4620                           	line	384
  4621                           	
  4622  095A                     l5370:	
  4623                           ;Main.c: 384: send_config(0xc0+data);
  4624  095A  087A               	movf	(lcd_goto@data),w
  4625  095B  3EC0               	addlw	0C0h
  4626  095C  120A  158A  2207   	fcall	_send_config
              120A  158A         
  4627  0961  2962               	goto	l1240
  4628                           	line	385
  4629                           	
  4630  0962                     l1239:	
  4631                           	line	386
  4632                           	
  4633  0962                     l1240:	
  4634  0962  0008               	return
  4635                           	opt stack 0
  4636                           GLOBAL	__end_of_lcd_goto
  4637  0963                     	__end_of_lcd_goto:
  4638 ;; =============== function _lcd_goto ends ============
  4639                           
  4640                           	signat	_lcd_goto,4216
  4641                           	global	_lcd_clr
  4642                           psect	text804,local,class=CODE,delta=2
  4643                           global __ptext804
  4644  08D1                     __ptext804:
  4645                           
  4646 ;; *************** function _lcd_clr *****************
  4647 ;; Defined at:
  4648 ;;		line 389 in file "Main.c"
  4649 ;; Parameters:    Size  Location     Type
  4650 ;;		None
  4651 ;; Auto vars:     Size  Location     Type
  4652 ;;		None
  4653 ;; Return value:  Size  Location     Type
  4654 ;;		None               void
  4655 ;; Registers used:
  4656 ;;		wreg, status,2, status,0, pclath, cstack
  4657 ;; Tracked objects:
  4658 ;;		On entry : 0/0
  4659 ;;		On exit  : 0/0
  4660 ;;		Unchanged: 0/0
  4661 ;; Data sizes:     COMMON   BANK0   BANK1   BANK3   BANK2
  4662 ;;      Params:         0       0       0       0       0
  4663 ;;      Locals:         0       0       0       0       0
  4664 ;;      Temps:          0       0       0       0       0
  4665 ;;      Totals:         0       0       0       0       0
  4666 ;;Total ram usage:        0 bytes
  4667 ;; Hardware stack levels used:    1
  4668 ;; Hardware stack levels required when called:    2
  4669 ;; This function calls:
  4670 ;;		_send_config
  4671 ;;		_delay
  4672 ;; This function is called by:
  4673 ;;		_main
  4674 ;;		_lcdinit
  4675 ;; This function uses a non-reentrant model
  4676 ;;
  4677                           psect	text804
  4678                           	file	"Main.c"
  4679                           	line	389
  4680                           	global	__size_of_lcd_clr
  4681  0014                     	__size_of_lcd_clr	equ	__end_of_lcd_clr-_lcd_clr
  4682                           	
  4683  08D1                     _lcd_clr:	
  4684                           	opt	stack 5
  4685                           ; Regs used in _lcd_clr: [wreg+status,2+status,0+pclath+cstack]
  4686                           	line	390
  4687                           	
  4688  08D1                     l5362:	
  4689                           ;Main.c: 390: send_config(0x01);
  4690  08D1  3001               	movlw	(01h)
  4691  08D2  120A  158A  2207   	fcall	_send_config
              120A  158A         
  4692                           	line	391
  4693                           ;Main.c: 391: delay(600);
  4694  08D7  3000               	movlw	0
  4695  08D8  00F3               	movwf	(?_delay+3)
  4696  08D9  3000               	movlw	0
  4697  08DA  00F2               	movwf	(?_delay+2)
  4698  08DB  3002               	movlw	02h
  4699  08DC  00F1               	movwf	(?_delay+1)
  4700  08DD  3058               	movlw	058h
  4701  08DE  00F0               	movwf	(?_delay)
  4702                           
  4703  08DF  120A  158A  22D2   	fcall	_delay
              120A  158A         
  4704                           	line	392
  4705                           	
  4706  08E4                     l1243:	
  4707  08E4  0008               	return
  4708                           	opt stack 0
  4709                           GLOBAL	__end_of_lcd_clr
  4710  08E5                     	__end_of_lcd_clr:
  4711 ;; =============== function _lcd_clr ends ============
  4712                           
  4713                           	signat	_lcd_clr,88
  4714                           	global	_LSA08_GetPosition
  4715                           psect	text805,local,class=CODE,delta=2
  4716                           global __ptext805
  4717  0AA6                     __ptext805:
  4718                           
  4719 ;; *************** function _LSA08_GetPosition *****************
  4720 ;; Defined at:
  4721 ;;		line 294 in file "LSA08.h"
  4722 ;; Parameters:    Size  Location     Type
  4723 ;;		None
  4724 ;; Auto vars:     Size  Location     Type
  4725 ;;  linepost        1   10[COMMON] unsigned char 
  4726 ;;  post            1    9[COMMON] char 
  4727 ;; Return value:  Size  Location     Type
  4728 ;;                  1    wreg      char 
  4729 ;; Registers used:
  4730 ;;		wreg, status,2, status,0, pclath, cstack
  4731 ;; Tracked objects:
  4732 ;;		On entry : 0/0
  4733 ;;		On exit  : 0/0
  4734 ;;		Unchanged: 0/0
  4735 ;; Data sizes:     COMMON   BANK0   BANK1   BANK3   BANK2
  4736 ;;      Params:         0       0       0       0       0
  4737 ;;      Locals:         2       0       0       0       0
  4738 ;;      Temps:          1       0       0       0       0
  4739 ;;      Totals:         3       0       0       0       0
  4740 ;;Total ram usage:        3 bytes
  4741 ;; Hardware stack levels used:    1
  4742 ;; Hardware stack levels required when called:    2
  4743 ;; This function calls:
  4744 ;;		_UART_REC
  4745 ;;		_UART_DUMP
  4746 ;; This function is called by:
  4747 ;;		_main
  4748 ;; This function uses a non-reentrant model
  4749 ;;
  4750                           psect	text805
  4751                           	file	"LSA08.h"
  4752                           	line	294
  4753                           	global	__size_of_LSA08_GetPosition
  4754  002C                     	__size_of_LSA08_GetPosition	equ	__end_of_LSA08_GetPosition-_LSA08_GetPosition
  4755                           	
  4756  0AA6                     _LSA08_GetPosition:	
  4757                           	opt	stack 5
  4758                           ; Regs used in _LSA08_GetPosition: [wreg+status,2+status,0+pclath+cstack]
  4759                           	line	298
  4760                           	
  4761  0AA6                     l5342:	
  4762                           ;LSA08.h: 296: unsigned char linepost;
  4763                           ;LSA08.h: 297: signed char post;
  4764                           ;LSA08.h: 298: PORTCbits.RC5=0;
  4765  0AA6  1283               	bcf	status, 5	;RP0=0, select bank0
  4766  0AA7  1303               	bcf	status, 6	;RP1=0, select bank0
  4767  0AA8  1287               	bcf	(7),5	;volatile
  4768  0AA9  2AAA               	goto	l5344
  4769                           	line	299
  4770                           ;LSA08.h: 299: do{
  4771                           	
  4772  0AAA                     l1103:	
  4773                           	line	300
  4774                           	
  4775  0AAA                     l5344:	
  4776                           ;LSA08.h: 300: linepost= UART_REC();
  4777  0AAA  120A  158A  23C5   	fcall	_UART_REC
              120A  158A         
  4778  0AAF  00F8               	movwf	(??_LSA08_GetPosition+0)+0
  4779  0AB0  0878               	movf	(??_LSA08_GetPosition+0)+0,w
  4780  0AB1  00FA               	movwf	(LSA08_GetPosition@linepost)
  4781                           	line	301
  4782                           	
  4783  0AB2                     l5346:	
  4784                           ;LSA08.h: 301: }while(ERR_FLAG);
  4785  0AB2  1683               	bsf	status, 5	;RP0=1, select bank1
  4786  0AB3  1303               	bcf	status, 6	;RP1=0, select bank1
  4787  0AB4  08B2               	movf	(_ERR_FLAG)^080h,f
  4788  0AB5  1D03               	skipz
  4789  0AB6  2AB8               	goto	u3851
  4790  0AB7  2AB9               	goto	u3850
  4791  0AB8                     u3851:
  4792  0AB8  2AAA               	goto	l5344
  4793  0AB9                     u3850:
  4794                           	
  4795  0AB9                     l1104:	
  4796                           	line	302
  4797                           ;LSA08.h: 302: PORTCbits.RC5=1;
  4798  0AB9  1283               	bcf	status, 5	;RP0=0, select bank0
  4799  0ABA  1303               	bcf	status, 6	;RP1=0, select bank0
  4800  0ABB  1687               	bsf	(7),5	;volatile
  4801                           	line	304
  4802                           	
  4803  0ABC                     l5348:	
  4804                           ;LSA08.h: 304: UART_DUMP();
  4805  0ABC  120A  158A  2099   	fcall	_UART_DUMP
              120A  158A         
  4806                           	line	306
  4807                           	
  4808  0AC1                     l5350:	
  4809                           ;LSA08.h: 306: if(linepost==255) return(127);
  4810  0AC1  087A               	movf	(LSA08_GetPosition@linepost),w
  4811  0AC2  3AFF               	xorlw	0FFh
  4812  0AC3  1D03               	skipz
  4813  0AC4  2AC6               	goto	u3861
  4814  0AC5  2AC7               	goto	u3860
  4815  0AC6                     u3861:
  4816  0AC6  2ACA               	goto	l5356
  4817  0AC7                     u3860:
  4818                           	
  4819  0AC7                     l5352:	
  4820  0AC7  307F               	movlw	(07Fh)
  4821  0AC8  2AD1               	goto	l1106
  4822                           	
  4823  0AC9                     l5354:	
  4824  0AC9  2AD1               	goto	l1106
  4825                           	
  4826  0ACA                     l1105:	
  4827                           	line	308
  4828                           	
  4829  0ACA                     l5356:	
  4830                           ;LSA08.h: 308: post=(signed char)linepost-35;
  4831  0ACA  087A               	movf	(LSA08_GetPosition@linepost),w
  4832  0ACB  3EDD               	addlw	-35
  4833  0ACC  00F8               	movwf	(??_LSA08_GetPosition+0)+0
  4834  0ACD  0878               	movf	(??_LSA08_GetPosition+0)+0,w
  4835  0ACE  00F9               	movwf	(LSA08_GetPosition@post)
  4836                           	line	310
  4837                           	
  4838  0ACF                     l5358:	
  4839                           ;LSA08.h: 310: return(post);
  4840  0ACF  0879               	movf	(LSA08_GetPosition@post),w
  4841  0AD0  2AD1               	goto	l1106
  4842                           	
  4843  0AD1                     l5360:	
  4844                           	line	311
  4845                           	
  4846  0AD1                     l1106:	
  4847  0AD1  0008               	return
  4848                           	opt stack 0
  4849                           GLOBAL	__end_of_LSA08_GetPosition
  4850  0AD2                     	__end_of_LSA08_GetPosition:
  4851 ;; =============== function _LSA08_GetPosition ends ============
  4852                           
  4853                           	signat	_LSA08_GetPosition,89
  4854                           	global	_SEND_PACKET
  4855                           psect	text806,local,class=CODE,delta=2
  4856                           global __ptext806
  4857  0A2C                     __ptext806:
  4858                           
  4859 ;; *************** function _SEND_PACKET *****************
  4860 ;; Defined at:
  4861 ;;		line 247 in file "LSA08.h"
  4862 ;; Parameters:    Size  Location     Type
  4863 ;;  add             1    wreg     unsigned char 
  4864 ;;  command         1    8[COMMON] unsigned char 
  4865 ;;  value           1    9[COMMON] unsigned char 
  4866 ;;  com_dat         1   10[COMMON] unsigned char 
  4867 ;; Auto vars:     Size  Location     Type
  4868 ;;  add             1   12[COMMON] unsigned char 
  4869 ;; Return value:  Size  Location     Type
  4870 ;;                  1    wreg      unsigned char 
  4871 ;; Registers used:
  4872 ;;		wreg, status,2, status,0, pclath, cstack
  4873 ;; Tracked objects:
  4874 ;;		On entry : 0/0
  4875 ;;		On exit  : 0/0
  4876 ;;		Unchanged: 0/0
  4877 ;; Data sizes:     COMMON   BANK0   BANK1   BANK3   BANK2
  4878 ;;      Params:         3       0       0       0       0
  4879 ;;      Locals:         1       0       0       0       0
  4880 ;;      Temps:          1       0       0       0       0
  4881 ;;      Totals:         5       0       0       0       0
  4882 ;;Total ram usage:        5 bytes
  4883 ;; Hardware stack levels used:    1
  4884 ;; Hardware stack levels required when called:    2
  4885 ;; This function calls:
  4886 ;;		_UART_SEND
  4887 ;;		_UART_RESPONSE
  4888 ;; This function is called by:
  4889 ;;		_LSA08_ClearJunction
  4890 ;;		_LSA08_UARTMode
  4891 ;;		_LSA08_GetJunction
  4892 ;;		_LSA08_Calibrate
  4893 ;;		_LSA08_LineMode
  4894 ;;		_LSA08_Threshold
  4895 ;;		_LSA08_JunctionWidth
  4896 ;;		_LSA08_BL
  4897 ;;		_LSA08_Contrast
  4898 ;; This function uses a non-reentrant model
  4899 ;;
  4900                           psect	text806
  4901                           	file	"LSA08.h"
  4902                           	line	247
  4903                           	global	__size_of_SEND_PACKET
  4904  0025                     	__size_of_SEND_PACKET	equ	__end_of_SEND_PACKET-_SEND_PACKET
  4905                           	
  4906  0A2C                     _SEND_PACKET:	
  4907                           	opt	stack 3
  4908                           ; Regs used in _SEND_PACKET: [wreg+status,2+status,0+pclath+cstack]
  4909                           ;SEND_PACKET@add stored from wreg
  4910  0A2C  00FC               	movwf	(SEND_PACKET@add)
  4911                           	line	248
  4912                           	
  4913  0A2D                     l5338:	
  4914                           ;LSA08.h: 248: UART_SEND(add);
  4915  0A2D  087C               	movf	(SEND_PACKET@add),w
  4916  0A2E  120A  158A  207D   	fcall	_UART_SEND
              120A  158A         
  4917                           	line	249
  4918                           ;LSA08.h: 249: UART_SEND(command);
  4919  0A33  0878               	movf	(SEND_PACKET@command),w
  4920  0A34  120A  158A  207D   	fcall	_UART_SEND
              120A  158A         
  4921                           	line	250
  4922                           ;LSA08.h: 250: UART_SEND(value);
  4923  0A39  0879               	movf	(SEND_PACKET@value),w
  4924  0A3A  120A  158A  207D   	fcall	_UART_SEND
              120A  158A         
  4925                           	line	251
  4926                           ;LSA08.h: 251: UART_SEND(add+command+value);
  4927  0A3F  0878               	movf	(SEND_PACKET@command),w
  4928  0A40  077C               	addwf	(SEND_PACKET@add),w
  4929  0A41  00FB               	movwf	(??_SEND_PACKET+0)+0
  4930  0A42  0879               	movf	(SEND_PACKET@value),w
  4931  0A43  077B               	addwf	0+(??_SEND_PACKET+0)+0,w
  4932  0A44  120A  158A  207D   	fcall	_UART_SEND
              120A  158A         
  4933                           	line	252
  4934                           ;LSA08.h: 252: return (UART_RESPONSE(com_dat));
  4935  0A49  087A               	movf	(SEND_PACKET@com_dat),w
  4936  0A4A  120A  118A  200A   	fcall	_UART_RESPONSE
              120A  158A         
  4937  0A4F  2A50               	goto	l1097
  4938                           	
  4939  0A50                     l5340:	
  4940                           	line	253
  4941                           	
  4942  0A50                     l1097:	
  4943  0A50  0008               	return
  4944                           	opt stack 0
  4945                           GLOBAL	__end_of_SEND_PACKET
  4946  0A51                     	__end_of_SEND_PACKET:
  4947 ;; =============== function _SEND_PACKET ends ============
  4948                           
  4949                           	signat	_SEND_PACKET,16505
  4950                           	global	___awtoft
  4951                           psect	text807,local,class=CODE,delta=2
  4952                           global __ptext807
  4953  0A7A                     __ptext807:
  4954                           
  4955 ;; *************** function ___awtoft *****************
  4956 ;; Defined at:
  4957 ;;		line 33 in file "C:\Program Files\HI-TECH Software\PICC\9.83\sources\awtoft.c"
  4958 ;; Parameters:    Size  Location     Type
  4959 ;;  c               2   14[BANK0 ] int 
  4960 ;; Auto vars:     Size  Location     Type
  4961 ;;  sign            1   13[COMMON] unsigned char 
  4962 ;; Return value:  Size  Location     Type
  4963 ;;                  3   14[BANK0 ] float 
  4964 ;; Registers used:
  4965 ;;		wreg, status,2, status,0, pclath, cstack
  4966 ;; Tracked objects:
  4967 ;;		On entry : 0/0
  4968 ;;		On exit  : 0/0
  4969 ;;		Unchanged: 0/0
  4970 ;; Data sizes:     COMMON   BANK0   BANK1   BANK3   BANK2
  4971 ;;      Params:         0       3       0       0       0
  4972 ;;      Locals:         1       0       0       0       0
  4973 ;;      Temps:          2       0       0       0       0
  4974 ;;      Totals:         3       3       0       0       0
  4975 ;;Total ram usage:        6 bytes
  4976 ;; Hardware stack levels used:    1
  4977 ;; Hardware stack levels required when called:    1
  4978 ;; This function calls:
  4979 ;;		___ftpack
  4980 ;; This function is called by:
  4981 ;;		_main
  4982 ;; This function uses a non-reentrant model
  4983 ;;
  4984                           psect	text807
  4985                           	file	"C:\Program Files\HI-TECH Software\PICC\9.83\sources\awtoft.c"
  4986                           	line	33
  4987                           	global	__size_of___awtoft
  4988  002C                     	__size_of___awtoft	equ	__end_of___awtoft-___awtoft
  4989                           	
  4990  0A7A                     ___awtoft:	
  4991                           	opt	stack 6
  4992                           ; Regs used in ___awtoft: [wreg+status,2+status,0+pclath+cstack]
  4993                           	line	36
  4994                           	
  4995  0A7A                     l5330:	
  4996  0A7A  01FD               	clrf	(___awtoft@sign)
  4997                           	line	37
  4998  0A7B  1283               	bcf	status, 5	;RP0=0, select bank0
  4999  0A7C  1303               	bcf	status, 6	;RP1=0, select bank0
  5000  0A7D  1FAF               	btfss	(___awtoft@c+1),7
  5001  0A7E  2A80               	goto	u3841
  5002  0A7F  2A81               	goto	u3840
  5003  0A80                     u3841:
  5004  0A80  2A8A               	goto	l5334
  5005  0A81                     u3840:
  5006                           	line	38
  5007                           	
  5008  0A81                     l5332:	
  5009  0A81  09AE               	comf	(___awtoft@c),f
  5010  0A82  09AF               	comf	(___awtoft@c+1),f
  5011  0A83  0AAE               	incf	(___awtoft@c),f
  5012  0A84  1903               	skipnz
  5013  0A85  0AAF               	incf	(___awtoft@c+1),f
  5014                           	line	39
  5015  0A86  01FD               	clrf	(___awtoft@sign)
  5016  0A87  1403               	bsf	status,0
  5017  0A88  0DFD               	rlf	(___awtoft@sign),f
  5018  0A89  2A8A               	goto	l5334
  5019                           	line	40
  5020                           	
  5021  0A8A                     l2414:	
  5022                           	line	41
  5023                           	
  5024  0A8A                     l5334:	
  5025  0A8A  082E               	movf	(___awtoft@c),w
  5026  0A8B  00F0               	movwf	(?___ftpack)
  5027  0A8C  082F               	movf	(___awtoft@c+1),w
  5028  0A8D  00F1               	movwf	(?___ftpack+1)
  5029  0A8E  01F2               	clrf	(?___ftpack+2)
  5030  0A8F  308E               	movlw	(08Eh)
  5031  0A90  00FB               	movwf	(??___awtoft+0)+0
  5032  0A91  087B               	movf	(??___awtoft+0)+0,w
  5033  0A92  00F3               	movwf	0+(?___ftpack)+03h
  5034  0A93  087D               	movf	(___awtoft@sign),w
  5035  0A94  00FC               	movwf	(??___awtoft+1)+0
  5036  0A95  087C               	movf	(??___awtoft+1)+0,w
  5037  0A96  00F4               	movwf	0+(?___ftpack)+04h
  5038  0A97  120A  158A  250B   	fcall	___ftpack
              120A  158A         
  5039  0A9C  0870               	movf	(0+(?___ftpack)),w
  5040  0A9D  1283               	bcf	status, 5	;RP0=0, select bank0
  5041  0A9E  1303               	bcf	status, 6	;RP1=0, select bank0
  5042  0A9F  00AE               	movwf	(?___awtoft)
  5043  0AA0  0871               	movf	(1+(?___ftpack)),w
  5044  0AA1  00AF               	movwf	(?___awtoft+1)
  5045  0AA2  0872               	movf	(2+(?___ftpack)),w
  5046  0AA3  00B0               	movwf	(?___awtoft+2)
  5047  0AA4  2AA5               	goto	l2415
  5048                           	
  5049  0AA5                     l5336:	
  5050                           	line	42
  5051                           	
  5052  0AA5                     l2415:	
  5053  0AA5  0008               	return
  5054                           	opt stack 0
  5055                           GLOBAL	__end_of___awtoft
  5056  0AA6                     	__end_of___awtoft:
  5057 ;; =============== function ___awtoft ends ============
  5058                           
  5059                           	signat	___awtoft,4219
  5060                           	global	___lbtoft
  5061                           psect	text808,local,class=CODE,delta=2
  5062                           global __ptext808
  5063  09C1                     __ptext808:
  5064                           
  5065 ;; *************** function ___lbtoft *****************
  5066 ;; Defined at:
  5067 ;;		line 28 in file "C:\Program Files\HI-TECH Software\PICC\9.83\sources\lbtoft.c"
  5068 ;; Parameters:    Size  Location     Type
  5069 ;;  c               1    wreg     unsigned char 
  5070 ;; Auto vars:     Size  Location     Type
  5071 ;;  c               1   11[COMMON] unsigned char 
  5072 ;; Return value:  Size  Location     Type
  5073 ;;                  3   14[BANK0 ] float 
  5074 ;; Registers used:
  5075 ;;		wreg, status,2, status,0, pclath, cstack
  5076 ;; Tracked objects:
  5077 ;;		On entry : 0/0
  5078 ;;		On exit  : 0/0
  5079 ;;		Unchanged: 0/0
  5080 ;; Data sizes:     COMMON   BANK0   BANK1   BANK3   BANK2
  5081 ;;      Params:         0       3       0       0       0
  5082 ;;      Locals:         1       0       0       0       0
  5083 ;;      Temps:          0       4       0       0       0
  5084 ;;      Totals:         1       7       0       0       0
  5085 ;;Total ram usage:        8 bytes
  5086 ;; Hardware stack levels used:    1
  5087 ;; Hardware stack levels required when called:    1
  5088 ;; This function calls:
  5089 ;;		___ftpack
  5090 ;; This function is called by:
  5091 ;;		_PID_MENU
  5092 ;; This function uses a non-reentrant model
  5093 ;;
  5094                           psect	text808
  5095                           	file	"C:\Program Files\HI-TECH Software\PICC\9.83\sources\lbtoft.c"
  5096                           	line	28
  5097                           	global	__size_of___lbtoft
  5098  0021                     	__size_of___lbtoft	equ	__end_of___lbtoft-___lbtoft
  5099                           	
  5100  09C1                     ___lbtoft:	
  5101                           	opt	stack 5
  5102                           ; Regs used in ___lbtoft: [wreg+status,2+status,0+pclath+cstack]
  5103                           ;___lbtoft@c stored from wreg
  5104  09C1  00FB               	movwf	(___lbtoft@c)
  5105                           	line	29
  5106                           	
  5107  09C2                     l5326:	
  5108  09C2  087B               	movf	(___lbtoft@c),w
  5109  09C3  1283               	bcf	status, 5	;RP0=0, select bank0
  5110  09C4  1303               	bcf	status, 6	;RP1=0, select bank0
  5111  09C5  00B1               	movwf	((??___lbtoft+0)+0)
  5112  09C6  01B2               	clrf	((??___lbtoft+0)+0+1)
  5113  09C7  01B3               	clrf	((??___lbtoft+0)+0+2)
  5114  09C8  0831               	movf	0+(??___lbtoft+0)+0,w
  5115  09C9  00F0               	movwf	(?___ftpack)
  5116  09CA  0832               	movf	1+(??___lbtoft+0)+0,w
  5117  09CB  00F1               	movwf	(?___ftpack+1)
  5118  09CC  0833               	movf	2+(??___lbtoft+0)+0,w
  5119  09CD  00F2               	movwf	(?___ftpack+2)
  5120  09CE  308E               	movlw	(08Eh)
  5121  09CF  00B4               	movwf	(??___lbtoft+3)+0
  5122  09D0  0834               	movf	(??___lbtoft+3)+0,w
  5123  09D1  00F3               	movwf	0+(?___ftpack)+03h
  5124  09D2  01F4               	clrf	0+(?___ftpack)+04h
  5125  09D3  120A  158A  250B   	fcall	___ftpack
              120A  158A         
  5126  09D8  0870               	movf	(0+(?___ftpack)),w
  5127  09D9  1283               	bcf	status, 5	;RP0=0, select bank0
  5128  09DA  1303               	bcf	status, 6	;RP1=0, select bank0
  5129  09DB  00AE               	movwf	(?___lbtoft)
  5130  09DC  0871               	movf	(1+(?___ftpack)),w
  5131  09DD  00AF               	movwf	(?___lbtoft+1)
  5132  09DE  0872               	movf	(2+(?___ftpack)),w
  5133  09DF  00B0               	movwf	(?___lbtoft+2)
  5134  09E0  29E1               	goto	l2403
  5135                           	
  5136  09E1                     l5328:	
  5137                           	line	30
  5138                           	
  5139  09E1                     l2403:	
  5140  09E1  0008               	return
  5141                           	opt stack 0
  5142                           GLOBAL	__end_of___lbtoft
  5143  09E2                     	__end_of___lbtoft:
  5144 ;; =============== function ___lbtoft ends ============
  5145                           
  5146                           	signat	___lbtoft,4219
  5147                           	global	___ftmul
  5148                           psect	text809,local,class=CODE,delta=2
  5149                           global __ptext809
  5150  003F                     __ptext809:
  5151                           
  5152 ;; *************** function ___ftmul *****************
  5153 ;; Defined at:
  5154 ;;		line 52 in file "C:\Program Files\HI-TECH Software\PICC\9.83\sources\ftmul.c"
  5155 ;; Parameters:    Size  Location     Type
  5156 ;;  f1              3   21[BANK0 ] float 
  5157 ;;  f2              3   24[BANK0 ] float 
  5158 ;; Auto vars:     Size  Location     Type
  5159 ;;  f3_as_produc    3   32[BANK0 ] unsigned um
  5160 ;;  sign            1   36[BANK0 ] unsigned char 
  5161 ;;  cntr            1   35[BANK0 ] unsigned char 
  5162 ;;  exp             1   31[BANK0 ] unsigned char 
  5163 ;; Return value:  Size  Location     Type
  5164 ;;                  3   21[BANK0 ] float 
  5165 ;; Registers used:
  5166 ;;		wreg, status,2, status,0, pclath, cstack
  5167 ;; Tracked objects:
  5168 ;;		On entry : 0/0
  5169 ;;		On exit  : 0/0
  5170 ;;		Unchanged: 0/0
  5171 ;; Data sizes:     COMMON   BANK0   BANK1   BANK3   BANK2
  5172 ;;      Params:         0       6       0       0       0
  5173 ;;      Locals:         0       6       0       0       0
  5174 ;;      Temps:          0       4       0       0       0
  5175 ;;      Totals:         0      16       0       0       0
  5176 ;;Total ram usage:       16 bytes
  5177 ;; Hardware stack levels used:    1
  5178 ;; Hardware stack levels required when called:    1
  5179 ;; This function calls:
  5180 ;;		___ftpack
  5181 ;; This function is called by:
  5182 ;;		_main
  5183 ;;		_PID_MENU
  5184 ;; This function uses a non-reentrant model
  5185 ;;
  5186                           psect	text809
  5187                           	file	"C:\Program Files\HI-TECH Software\PICC\9.83\sources\ftmul.c"
  5188                           	line	52
  5189                           	global	__size_of___ftmul
  5190  00EE                     	__size_of___ftmul	equ	__end_of___ftmul-___ftmul
  5191                           	
  5192  003F                     ___ftmul:	
  5193                           	opt	stack 6
  5194                           ; Regs used in ___ftmul: [wreg+status,2+status,0+pclath+cstack]
  5195                           	line	56
  5196                           	
  5197  003F                     l5276:	
  5198  003F  1283               	bcf	status, 5	;RP0=0, select bank0
  5199  0040  1303               	bcf	status, 6	;RP1=0, select bank0
  5200  0041  0835               	movf	(___ftmul@f1),w
  5201  0042  00BB               	movwf	((??___ftmul+0)+0)
  5202  0043  0836               	movf	(___ftmul@f1+1),w
  5203  0044  00BC               	movwf	((??___ftmul+0)+0+1)
  5204  0045  0837               	movf	(___ftmul@f1+2),w
  5205  0046  00BD               	movwf	((??___ftmul+0)+0+2)
  5206  0047  1003               	clrc
  5207  0048  0D3C               	rlf	(??___ftmul+0)+1,w
  5208  0049  0D3D               	rlf	(??___ftmul+0)+2,w
  5209  004A  00BE               	movwf	(??___ftmul+3)+0
  5210  004B  083E               	movf	(??___ftmul+3)+0,w
  5211  004C  00BF               	movwf	(___ftmul@exp)
  5212  004D  08BF               	movf	((___ftmul@exp)),f
  5213  004E  1D03               	skipz
  5214  004F  2851               	goto	u3701
  5215  0050  2852               	goto	u3700
  5216  0051                     u3701:
  5217  0051  285A               	goto	l5282
  5218  0052                     u3700:
  5219                           	line	57
  5220                           	
  5221  0052                     l5278:	
  5222  0052  3000               	movlw	0x0
  5223  0053  00B5               	movwf	(?___ftmul)
  5224  0054  3000               	movlw	0x0
  5225  0055  00B6               	movwf	(?___ftmul+1)
  5226  0056  3000               	movlw	0x0
  5227  0057  00B7               	movwf	(?___ftmul+2)
  5228  0058  292C               	goto	l2377
  5229                           	
  5230  0059                     l5280:	
  5231  0059  292C               	goto	l2377
  5232                           	
  5233  005A                     l2376:	
  5234                           	line	58
  5235                           	
  5236  005A                     l5282:	
  5237  005A  0838               	movf	(___ftmul@f2),w
  5238  005B  00BB               	movwf	((??___ftmul+0)+0)
  5239  005C  0839               	movf	(___ftmul@f2+1),w
  5240  005D  00BC               	movwf	((??___ftmul+0)+0+1)
  5241  005E  083A               	movf	(___ftmul@f2+2),w
  5242  005F  00BD               	movwf	((??___ftmul+0)+0+2)
  5243  0060  1003               	clrc
  5244  0061  0D3C               	rlf	(??___ftmul+0)+1,w
  5245  0062  0D3D               	rlf	(??___ftmul+0)+2,w
  5246  0063  00BE               	movwf	(??___ftmul+3)+0
  5247  0064  083E               	movf	(??___ftmul+3)+0,w
  5248  0065  00C4               	movwf	(___ftmul@sign)
  5249  0066  08C4               	movf	((___ftmul@sign)),f
  5250  0067  1D03               	skipz
  5251  0068  286A               	goto	u3711
  5252  0069  286B               	goto	u3710
  5253  006A                     u3711:
  5254  006A  2873               	goto	l5288
  5255  006B                     u3710:
  5256                           	line	59
  5257                           	
  5258  006B                     l5284:	
  5259  006B  3000               	movlw	0x0
  5260  006C  00B5               	movwf	(?___ftmul)
  5261  006D  3000               	movlw	0x0
  5262  006E  00B6               	movwf	(?___ftmul+1)
  5263  006F  3000               	movlw	0x0
  5264  0070  00B7               	movwf	(?___ftmul+2)
  5265  0071  292C               	goto	l2377
  5266                           	
  5267  0072                     l5286:	
  5268  0072  292C               	goto	l2377
  5269                           	
  5270  0073                     l2378:	
  5271                           	line	60
  5272                           	
  5273  0073                     l5288:	
  5274  0073  0844               	movf	(___ftmul@sign),w
  5275  0074  3E7B               	addlw	07Bh
  5276  0075  00BB               	movwf	(??___ftmul+0)+0
  5277  0076  083B               	movf	(??___ftmul+0)+0,w
  5278  0077  07BF               	addwf	(___ftmul@exp),f
  5279                           	line	61
  5280  0078  0835               	movf	(___ftmul@f1),w
  5281  0079  00BB               	movwf	((??___ftmul+0)+0)
  5282  007A  0836               	movf	(___ftmul@f1+1),w
  5283  007B  00BC               	movwf	((??___ftmul+0)+0+1)
  5284  007C  0837               	movf	(___ftmul@f1+2),w
  5285  007D  00BD               	movwf	((??___ftmul+0)+0+2)
  5286  007E  3010               	movlw	010h
  5287  007F                     u3725:
  5288  007F  1003               	clrc
  5289  0080  0CBD               	rrf	(??___ftmul+0)+2,f
  5290  0081  0CBC               	rrf	(??___ftmul+0)+1,f
  5291  0082  0CBB               	rrf	(??___ftmul+0)+0,f
  5292  0083                     u3720:
  5293  0083  3EFF               	addlw	-1
  5294  0084  1D03               	skipz
  5295  0085  287F               	goto	u3725
  5296  0086  083B               	movf	0+(??___ftmul+0)+0,w
  5297  0087  00BE               	movwf	(??___ftmul+3)+0
  5298  0088  083E               	movf	(??___ftmul+3)+0,w
  5299  0089  00C4               	movwf	(___ftmul@sign)
  5300                           	line	62
  5301  008A  0838               	movf	(___ftmul@f2),w
  5302  008B  00BB               	movwf	((??___ftmul+0)+0)
  5303  008C  0839               	movf	(___ftmul@f2+1),w
  5304  008D  00BC               	movwf	((??___ftmul+0)+0+1)
  5305  008E  083A               	movf	(___ftmul@f2+2),w
  5306  008F  00BD               	movwf	((??___ftmul+0)+0+2)
  5307  0090  3010               	movlw	010h
  5308  0091                     u3735:
  5309  0091  1003               	clrc
  5310  0092  0CBD               	rrf	(??___ftmul+0)+2,f
  5311  0093  0CBC               	rrf	(??___ftmul+0)+1,f
  5312  0094  0CBB               	rrf	(??___ftmul+0)+0,f
  5313  0095                     u3730:
  5314  0095  3EFF               	addlw	-1
  5315  0096  1D03               	skipz
  5316  0097  2891               	goto	u3735
  5317  0098  083B               	movf	0+(??___ftmul+0)+0,w
  5318  0099  00BE               	movwf	(??___ftmul+3)+0
  5319  009A  083E               	movf	(??___ftmul+3)+0,w
  5320  009B  06C4               	xorwf	(___ftmul@sign),f
  5321                           	line	63
  5322  009C  3080               	movlw	(080h)
  5323  009D  00BB               	movwf	(??___ftmul+0)+0
  5324  009E  083B               	movf	(??___ftmul+0)+0,w
  5325  009F  05C4               	andwf	(___ftmul@sign),f
  5326                           	line	64
  5327                           	
  5328  00A0                     l5290:	
  5329  00A0  17B6               	bsf	(___ftmul@f1)+(15/8),(15)&7
  5330                           	line	66
  5331                           	
  5332  00A1                     l5292:	
  5333  00A1  17B9               	bsf	(___ftmul@f2)+(15/8),(15)&7
  5334                           	line	67
  5335                           	
  5336  00A2                     l5294:	
  5337  00A2  30FF               	movlw	0FFh
  5338  00A3  05B8               	andwf	(___ftmul@f2),f
  5339  00A4  30FF               	movlw	0FFh
  5340  00A5  05B9               	andwf	(___ftmul@f2+1),f
  5341  00A6  3000               	movlw	0
  5342  00A7  05BA               	andwf	(___ftmul@f2+2),f
  5343                           	line	68
  5344                           	
  5345  00A8                     l5296:	
  5346  00A8  3000               	movlw	0
  5347  00A9  00C0               	movwf	(___ftmul@f3_as_product)
  5348  00AA  3000               	movlw	0
  5349  00AB  00C1               	movwf	(___ftmul@f3_as_product+1)
  5350  00AC  3000               	movlw	0
  5351  00AD  00C2               	movwf	(___ftmul@f3_as_product+2)
  5352                           	line	69
  5353                           	
  5354  00AE                     l5298:	
  5355  00AE  3007               	movlw	(07h)
  5356  00AF  00BB               	movwf	(??___ftmul+0)+0
  5357  00B0  083B               	movf	(??___ftmul+0)+0,w
  5358  00B1  00C3               	movwf	(___ftmul@cntr)
  5359  00B2  28B3               	goto	l5300
  5360                           	line	70
  5361                           	
  5362  00B3                     l2379:	
  5363                           	line	71
  5364                           	
  5365  00B3                     l5300:	
  5366  00B3  1C35               	btfss	(___ftmul@f1),(0)&7
  5367  00B4  28B6               	goto	u3741
  5368  00B5  28B7               	goto	u3740
  5369  00B6                     u3741:
  5370  00B6  28C8               	goto	l5304
  5371  00B7                     u3740:
  5372                           	line	72
  5373                           	
  5374  00B7                     l5302:	
  5375  00B7  0838               	movf	(___ftmul@f2),w
  5376  00B8  07C0               	addwf	(___ftmul@f3_as_product),f
  5377  00B9  0839               	movf	(___ftmul@f2+1),w
  5378  00BA  1103               	clrz
  5379  00BB  1803               	skipnc
  5380  00BC  0A39               	incf	(___ftmul@f2+1),w
  5381  00BD  1903               	skipnz
  5382  00BE  28C0               	goto	u3751
  5383  00BF  07C1               	addwf	(___ftmul@f3_as_product+1),f
  5384  00C0                     u3751:
  5385  00C0  083A               	movf	(___ftmul@f2+2),w
  5386  00C1  1103               	clrz
  5387  00C2  1803               	skipnc
  5388  00C3  0A3A               	incf	(___ftmul@f2+2),w
  5389  00C4  1903               	skipnz
  5390  00C5  28C7               	goto	u3752
  5391  00C6  07C2               	addwf	(___ftmul@f3_as_product+2),f
  5392  00C7                     u3752:
  5393                           
  5394  00C7  28C8               	goto	l5304
  5395                           	
  5396  00C8                     l2380:	
  5397                           	line	73
  5398                           	
  5399  00C8                     l5304:	
  5400  00C8  3001               	movlw	01h
  5401  00C9                     u3765:
  5402  00C9  1003               	clrc
  5403  00CA  0CB7               	rrf	(___ftmul@f1+2),f
  5404  00CB  0CB6               	rrf	(___ftmul@f1+1),f
  5405  00CC  0CB5               	rrf	(___ftmul@f1),f
  5406  00CD  3EFF               	addlw	-1
  5407  00CE  1D03               	skipz
  5408  00CF  28C9               	goto	u3765
  5409                           
  5410                           	line	74
  5411                           	
  5412  00D0                     l5306:	
  5413  00D0  3001               	movlw	01h
  5414  00D1                     u3775:
  5415  00D1  1003               	clrc
  5416  00D2  0DB8               	rlf	(___ftmul@f2),f
  5417  00D3  0DB9               	rlf	(___ftmul@f2+1),f
  5418  00D4  0DBA               	rlf	(___ftmul@f2+2),f
  5419  00D5  3EFF               	addlw	-1
  5420  00D6  1D03               	skipz
  5421  00D7  28D1               	goto	u3775
  5422                           	line	75
  5423                           	
  5424  00D8                     l5308:	
  5425  00D8  3001               	movlw	low(01h)
  5426  00D9  02C3               	subwf	(___ftmul@cntr),f
  5427  00DA  1D03               	btfss	status,2
  5428  00DB  28DD               	goto	u3781
  5429  00DC  28DE               	goto	u3780
  5430  00DD                     u3781:
  5431  00DD  28B3               	goto	l5300
  5432  00DE                     u3780:
  5433  00DE  28DF               	goto	l5310
  5434                           	
  5435  00DF                     l2381:	
  5436                           	line	76
  5437                           	
  5438  00DF                     l5310:	
  5439  00DF  3009               	movlw	(09h)
  5440  00E0  00BB               	movwf	(??___ftmul+0)+0
  5441  00E1  083B               	movf	(??___ftmul+0)+0,w
  5442  00E2  00C3               	movwf	(___ftmul@cntr)
  5443  00E3  28E4               	goto	l5312
  5444                           	line	77
  5445                           	
  5446  00E4                     l2382:	
  5447                           	line	78
  5448                           	
  5449  00E4                     l5312:	
  5450  00E4  1C35               	btfss	(___ftmul@f1),(0)&7
  5451  00E5  28E7               	goto	u3791
  5452  00E6  28E8               	goto	u3790
  5453  00E7                     u3791:
  5454  00E7  28F9               	goto	l5316
  5455  00E8                     u3790:
  5456                           	line	79
  5457                           	
  5458  00E8                     l5314:	
  5459  00E8  0838               	movf	(___ftmul@f2),w
  5460  00E9  07C0               	addwf	(___ftmul@f3_as_product),f
  5461  00EA  0839               	movf	(___ftmul@f2+1),w
  5462  00EB  1103               	clrz
  5463  00EC  1803               	skipnc
  5464  00ED  0A39               	incf	(___ftmul@f2+1),w
  5465  00EE  1903               	skipnz
  5466  00EF  28F1               	goto	u3801
  5467  00F0  07C1               	addwf	(___ftmul@f3_as_product+1),f
  5468  00F1                     u3801:
  5469  00F1  083A               	movf	(___ftmul@f2+2),w
  5470  00F2  1103               	clrz
  5471  00F3  1803               	skipnc
  5472  00F4  0A3A               	incf	(___ftmul@f2+2),w
  5473  00F5  1903               	skipnz
  5474  00F6  28F8               	goto	u3802
  5475  00F7  07C2               	addwf	(___ftmul@f3_as_product+2),f
  5476  00F8                     u3802:
  5477                           
  5478  00F8  28F9               	goto	l5316
  5479                           	
  5480  00F9                     l2383:	
  5481                           	line	80
  5482                           	
  5483  00F9                     l5316:	
  5484  00F9  3001               	movlw	01h
  5485  00FA                     u3815:
  5486  00FA  1003               	clrc
  5487  00FB  0CB7               	rrf	(___ftmul@f1+2),f
  5488  00FC  0CB6               	rrf	(___ftmul@f1+1),f
  5489  00FD  0CB5               	rrf	(___ftmul@f1),f
  5490  00FE  3EFF               	addlw	-1
  5491  00FF  1D03               	skipz
  5492  0100  28FA               	goto	u3815
  5493                           
  5494                           	line	81
  5495                           	
  5496  0101                     l5318:	
  5497  0101  3001               	movlw	01h
  5498  0102                     u3825:
  5499  0102  1003               	clrc
  5500  0103  0CC2               	rrf	(___ftmul@f3_as_product+2),f
  5501  0104  0CC1               	rrf	(___ftmul@f3_as_product+1),f
  5502  0105  0CC0               	rrf	(___ftmul@f3_as_product),f
  5503  0106  3EFF               	addlw	-1
  5504  0107  1D03               	skipz
  5505  0108  2902               	goto	u3825
  5506                           
  5507                           	line	82
  5508                           	
  5509  0109                     l5320:	
  5510  0109  3001               	movlw	low(01h)
  5511  010A  02C3               	subwf	(___ftmul@cntr),f
  5512  010B  1D03               	btfss	status,2
  5513  010C  290E               	goto	u3831
  5514  010D  290F               	goto	u3830
  5515  010E                     u3831:
  5516  010E  28E4               	goto	l5312
  5517  010F                     u3830:
  5518  010F  2910               	goto	l5322
  5519                           	
  5520  0110                     l2384:	
  5521                           	line	83
  5522                           	
  5523  0110                     l5322:	
  5524  0110  0840               	movf	(___ftmul@f3_as_product),w
  5525  0111  00F0               	movwf	(?___ftpack)
  5526  0112  0841               	movf	(___ftmul@f3_as_product+1),w
  5527  0113  00F1               	movwf	(?___ftpack+1)
  5528  0114  0842               	movf	(___ftmul@f3_as_product+2),w
  5529  0115  00F2               	movwf	(?___ftpack+2)
  5530  0116  083F               	movf	(___ftmul@exp),w
  5531  0117  00BB               	movwf	(??___ftmul+0)+0
  5532  0118  083B               	movf	(??___ftmul+0)+0,w
  5533  0119  00F3               	movwf	0+(?___ftpack)+03h
  5534  011A  0844               	movf	(___ftmul@sign),w
  5535  011B  00BC               	movwf	(??___ftmul+1)+0
  5536  011C  083C               	movf	(??___ftmul+1)+0,w
  5537  011D  00F4               	movwf	0+(?___ftpack)+04h
  5538  011E  120A  158A  250B   	fcall	___ftpack
              120A  118A         
  5539  0123  0870               	movf	(0+(?___ftpack)),w
  5540  0124  1283               	bcf	status, 5	;RP0=0, select bank0
  5541  0125  1303               	bcf	status, 6	;RP1=0, select bank0
  5542  0126  00B5               	movwf	(?___ftmul)
  5543  0127  0871               	movf	(1+(?___ftpack)),w
  5544  0128  00B6               	movwf	(?___ftmul+1)
  5545  0129  0872               	movf	(2+(?___ftpack)),w
  5546  012A  00B7               	movwf	(?___ftmul+2)
  5547  012B  292C               	goto	l2377
  5548                           	
  5549  012C                     l5324:	
  5550                           	line	84
  5551                           	
  5552  012C                     l2377:	
  5553  012C  0008               	return
  5554                           	opt stack 0
  5555                           GLOBAL	__end_of___ftmul
  5556  012D                     	__end_of___ftmul:
  5557 ;; =============== function ___ftmul ends ============
  5558                           
  5559                           	signat	___ftmul,8315
  5560                           	global	___ftadd
  5561                           psect	text810,local,class=CODE,delta=2
  5562                           global __ptext810
  5563  0EBA                     __ptext810:
  5564                           
  5565 ;; *************** function ___ftadd *****************
  5566 ;; Defined at:
  5567 ;;		line 87 in file "C:\Program Files\HI-TECH Software\PICC\9.83\sources\ftadd.c"
  5568 ;; Parameters:    Size  Location     Type
  5569 ;;  f1              3   37[BANK0 ] float 
  5570 ;;  f2              3   40[BANK0 ] float 
  5571 ;; Auto vars:     Size  Location     Type
  5572 ;;  exp1            1   49[BANK0 ] unsigned char 
  5573 ;;  exp2            1   48[BANK0 ] unsigned char 
  5574 ;;  sign            1   47[BANK0 ] unsigned char 
  5575 ;; Return value:  Size  Location     Type
  5576 ;;                  3   37[BANK0 ] float 
  5577 ;; Registers used:
  5578 ;;		wreg, status,2, status,0, pclath, cstack
  5579 ;; Tracked objects:
  5580 ;;		On entry : 0/0
  5581 ;;		On exit  : 0/0
  5582 ;;		Unchanged: 0/0
  5583 ;; Data sizes:     COMMON   BANK0   BANK1   BANK3   BANK2
  5584 ;;      Params:         0       6       0       0       0
  5585 ;;      Locals:         0       3       0       0       0
  5586 ;;      Temps:          0       4       0       0       0
  5587 ;;      Totals:         0      13       0       0       0
  5588 ;;Total ram usage:       13 bytes
  5589 ;; Hardware stack levels used:    1
  5590 ;; Hardware stack levels required when called:    1
  5591 ;; This function calls:
  5592 ;;		___ftpack
  5593 ;; This function is called by:
  5594 ;;		_main
  5595 ;;		_PID_MENU
  5596 ;;		___ftsub
  5597 ;; This function uses a non-reentrant model
  5598 ;;
  5599                           psect	text810
  5600                           	file	"C:\Program Files\HI-TECH Software\PICC\9.83\sources\ftadd.c"
  5601                           	line	87
  5602                           	global	__size_of___ftadd
  5603  0146                     	__size_of___ftadd	equ	__end_of___ftadd-___ftadd
  5604                           	
  5605  0EBA                     ___ftadd:	
  5606                           	opt	stack 6
  5607                           ; Regs used in ___ftadd: [wreg+status,2+status,0+pclath+cstack]
  5608                           	line	90
  5609                           	
  5610  0EBA                     l5206:	
  5611  0EBA  1283               	bcf	status, 5	;RP0=0, select bank0
  5612  0EBB  1303               	bcf	status, 6	;RP1=0, select bank0
  5613  0EBC  0845               	movf	(___ftadd@f1),w
  5614  0EBD  00CB               	movwf	((??___ftadd+0)+0)
  5615  0EBE  0846               	movf	(___ftadd@f1+1),w
  5616  0EBF  00CC               	movwf	((??___ftadd+0)+0+1)
  5617  0EC0  0847               	movf	(___ftadd@f1+2),w
  5618  0EC1  00CD               	movwf	((??___ftadd+0)+0+2)
  5619  0EC2  1003               	clrc
  5620  0EC3  0D4C               	rlf	(??___ftadd+0)+1,w
  5621  0EC4  0D4D               	rlf	(??___ftadd+0)+2,w
  5622  0EC5  00CE               	movwf	(??___ftadd+3)+0
  5623  0EC6  084E               	movf	(??___ftadd+3)+0,w
  5624  0EC7  00D1               	movwf	(___ftadd@exp1)
  5625                           	line	91
  5626  0EC8  0848               	movf	(___ftadd@f2),w
  5627  0EC9  00CB               	movwf	((??___ftadd+0)+0)
  5628  0ECA  0849               	movf	(___ftadd@f2+1),w
  5629  0ECB  00CC               	movwf	((??___ftadd+0)+0+1)
  5630  0ECC  084A               	movf	(___ftadd@f2+2),w
  5631  0ECD  00CD               	movwf	((??___ftadd+0)+0+2)
  5632  0ECE  1003               	clrc
  5633  0ECF  0D4C               	rlf	(??___ftadd+0)+1,w
  5634  0ED0  0D4D               	rlf	(??___ftadd+0)+2,w
  5635  0ED1  00CE               	movwf	(??___ftadd+3)+0
  5636  0ED2  084E               	movf	(??___ftadd+3)+0,w
  5637  0ED3  00D0               	movwf	(___ftadd@exp2)
  5638                           	line	92
  5639                           	
  5640  0ED4                     l5208:	
  5641  0ED4  0851               	movf	(___ftadd@exp1),w
  5642  0ED5  1D03               	skipz
  5643  0ED6  2ED8               	goto	u3460
  5644  0ED7  2EE9               	goto	l5214
  5645  0ED8                     u3460:
  5646                           	
  5647  0ED8                     l5210:	
  5648  0ED8  0850               	movf	(___ftadd@exp2),w
  5649  0ED9  0251               	subwf	(___ftadd@exp1),w
  5650  0EDA  1803               	skipnc
  5651  0EDB  2EDD               	goto	u3471
  5652  0EDC  2EDE               	goto	u3470
  5653  0EDD                     u3471:
  5654  0EDD  2EF1               	goto	l5218
  5655  0EDE                     u3470:
  5656                           	
  5657  0EDE                     l5212:	
  5658  0EDE  0351               	decf	(___ftadd@exp1),w
  5659  0EDF  3AFF               	xorlw	0ffh
  5660  0EE0  0750               	addwf	(___ftadd@exp2),w
  5661  0EE1  00CB               	movwf	(??___ftadd+0)+0
  5662  0EE2  3019               	movlw	(019h)
  5663  0EE3  024B               	subwf	0+(??___ftadd+0)+0,w
  5664  0EE4  1C03               	skipc
  5665  0EE5  2EE7               	goto	u3481
  5666  0EE6  2EE8               	goto	u3480
  5667  0EE7                     u3481:
  5668  0EE7  2EF1               	goto	l5218
  5669  0EE8                     u3480:
  5670  0EE8  2EE9               	goto	l5214
  5671                           	
  5672  0EE9                     l2324:	
  5673                           	line	93
  5674                           	
  5675  0EE9                     l5214:	
  5676  0EE9  0848               	movf	(___ftadd@f2),w
  5677  0EEA  00C5               	movwf	(?___ftadd)
  5678  0EEB  0849               	movf	(___ftadd@f2+1),w
  5679  0EEC  00C6               	movwf	(?___ftadd+1)
  5680  0EED  084A               	movf	(___ftadd@f2+2),w
  5681  0EEE  00C7               	movwf	(?___ftadd+2)
  5682  0EEF  2FFF               	goto	l2325
  5683                           	
  5684  0EF0                     l5216:	
  5685  0EF0  2FFF               	goto	l2325
  5686                           	
  5687  0EF1                     l2322:	
  5688                           	line	94
  5689                           	
  5690  0EF1                     l5218:	
  5691  0EF1  0850               	movf	(___ftadd@exp2),w
  5692  0EF2  1D03               	skipz
  5693  0EF3  2EF5               	goto	u3490
  5694  0EF4  2F05               	goto	l2328
  5695  0EF5                     u3490:
  5696                           	
  5697  0EF5                     l5220:	
  5698  0EF5  0851               	movf	(___ftadd@exp1),w
  5699  0EF6  0250               	subwf	(___ftadd@exp2),w
  5700  0EF7  1803               	skipnc
  5701  0EF8  2EFA               	goto	u3501
  5702  0EF9  2EFB               	goto	u3500
  5703  0EFA                     u3501:
  5704  0EFA  2F06               	goto	l5224
  5705  0EFB                     u3500:
  5706                           	
  5707  0EFB                     l5222:	
  5708  0EFB  0350               	decf	(___ftadd@exp2),w
  5709  0EFC  3AFF               	xorlw	0ffh
  5710  0EFD  0751               	addwf	(___ftadd@exp1),w
  5711  0EFE  00CB               	movwf	(??___ftadd+0)+0
  5712  0EFF  3019               	movlw	(019h)
  5713  0F00  024B               	subwf	0+(??___ftadd+0)+0,w
  5714  0F01  1C03               	skipc
  5715  0F02  2F04               	goto	u3511
  5716  0F03  2F05               	goto	u3510
  5717  0F04                     u3511:
  5718  0F04  2F06               	goto	l5224
  5719  0F05                     u3510:
  5720                           	
  5721  0F05                     l2328:	
  5722                           	line	95
  5723  0F05  2FFF               	goto	l2325
  5724                           	
  5725  0F06                     l2326:	
  5726                           	line	96
  5727                           	
  5728  0F06                     l5224:	
  5729  0F06  3006               	movlw	(06h)
  5730  0F07  00CB               	movwf	(??___ftadd+0)+0
  5731  0F08  084B               	movf	(??___ftadd+0)+0,w
  5732  0F09  00CF               	movwf	(___ftadd@sign)
  5733                           	line	97
  5734                           	
  5735  0F0A                     l5226:	
  5736  0F0A  1FC7               	btfss	(___ftadd@f1+2),(23)&7
  5737  0F0B  2F0D               	goto	u3521
  5738  0F0C  2F0E               	goto	u3520
  5739  0F0D                     u3521:
  5740  0F0D  2F0F               	goto	l2329
  5741  0F0E                     u3520:
  5742                           	line	98
  5743                           	
  5744  0F0E                     l5228:	
  5745  0F0E  17CF               	bsf	(___ftadd@sign)+(7/8),(7)&7
  5746                           	
  5747  0F0F                     l2329:	
  5748                           	line	99
  5749  0F0F  1FCA               	btfss	(___ftadd@f2+2),(23)&7
  5750  0F10  2F12               	goto	u3531
  5751  0F11  2F13               	goto	u3530
  5752  0F12                     u3531:
  5753  0F12  2F14               	goto	l2330
  5754  0F13                     u3530:
  5755                           	line	100
  5756                           	
  5757  0F13                     l5230:	
  5758  0F13  174F               	bsf	(___ftadd@sign)+(6/8),(6)&7
  5759                           	
  5760  0F14                     l2330:	
  5761                           	line	101
  5762  0F14  17C6               	bsf	(___ftadd@f1)+(15/8),(15)&7
  5763                           	line	102
  5764                           	
  5765  0F15                     l5232:	
  5766  0F15  30FF               	movlw	0FFh
  5767  0F16  05C5               	andwf	(___ftadd@f1),f
  5768  0F17  30FF               	movlw	0FFh
  5769  0F18  05C6               	andwf	(___ftadd@f1+1),f
  5770  0F19  3000               	movlw	0
  5771  0F1A  05C7               	andwf	(___ftadd@f1+2),f
  5772                           	line	103
  5773                           	
  5774  0F1B                     l5234:	
  5775  0F1B  17C9               	bsf	(___ftadd@f2)+(15/8),(15)&7
  5776                           	line	104
  5777  0F1C  30FF               	movlw	0FFh
  5778  0F1D  05C8               	andwf	(___ftadd@f2),f
  5779  0F1E  30FF               	movlw	0FFh
  5780  0F1F  05C9               	andwf	(___ftadd@f2+1),f
  5781  0F20  3000               	movlw	0
  5782  0F21  05CA               	andwf	(___ftadd@f2+2),f
  5783                           	line	106
  5784  0F22  0850               	movf	(___ftadd@exp2),w
  5785  0F23  0251               	subwf	(___ftadd@exp1),w
  5786  0F24  1803               	skipnc
  5787  0F25  2F27               	goto	u3541
  5788  0F26  2F28               	goto	u3540
  5789  0F27                     u3541:
  5790  0F27  2F59               	goto	l5246
  5791  0F28                     u3540:
  5792  0F28  2F29               	goto	l5236
  5793                           	line	109
  5794                           	
  5795  0F29                     l2332:	
  5796                           	line	110
  5797                           	
  5798  0F29                     l5236:	
  5799  0F29  3001               	movlw	01h
  5800  0F2A                     u3555:
  5801  0F2A  1003               	clrc
  5802  0F2B  0DC8               	rlf	(___ftadd@f2),f
  5803  0F2C  0DC9               	rlf	(___ftadd@f2+1),f
  5804  0F2D  0DCA               	rlf	(___ftadd@f2+2),f
  5805  0F2E  3EFF               	addlw	-1
  5806  0F2F  1D03               	skipz
  5807  0F30  2F2A               	goto	u3555
  5808                           	line	111
  5809  0F31  3001               	movlw	low(01h)
  5810  0F32  02D0               	subwf	(___ftadd@exp2),f
  5811                           	line	112
  5812                           	
  5813  0F33                     l5238:	
  5814  0F33  0850               	movf	(___ftadd@exp2),w
  5815  0F34  0651               	xorwf	(___ftadd@exp1),w
  5816  0F35  1903               	skipnz
  5817  0F36  2F38               	goto	u3561
  5818  0F37  2F39               	goto	u3560
  5819  0F38                     u3561:
  5820  0F38  2F51               	goto	l5244
  5821  0F39                     u3560:
  5822                           	
  5823  0F39                     l5240:	
  5824  0F39  3001               	movlw	low(01h)
  5825  0F3A  02CF               	subwf	(___ftadd@sign),f
  5826  0F3B  084F               	movf	((___ftadd@sign)),w
  5827  0F3C  3907               	andlw	07h
  5828  0F3D  1D03               	btfss	status,2
  5829  0F3E  2F40               	goto	u3571
  5830  0F3F  2F41               	goto	u3570
  5831  0F40                     u3571:
  5832  0F40  2F29               	goto	l5236
  5833  0F41                     u3570:
  5834  0F41  2F51               	goto	l5244
  5835                           	
  5836  0F42                     l2334:	
  5837  0F42  2F51               	goto	l5244
  5838                           	
  5839  0F43                     l2335:	
  5840                           	line	113
  5841  0F43  2F51               	goto	l5244
  5842                           	
  5843  0F44                     l2337:	
  5844                           	line	114
  5845                           	
  5846  0F44                     l5242:	
  5847  0F44  3001               	movlw	01h
  5848  0F45                     u3585:
  5849  0F45  1003               	clrc
  5850  0F46  0CC7               	rrf	(___ftadd@f1+2),f
  5851  0F47  0CC6               	rrf	(___ftadd@f1+1),f
  5852  0F48  0CC5               	rrf	(___ftadd@f1),f
  5853  0F49  3EFF               	addlw	-1
  5854  0F4A  1D03               	skipz
  5855  0F4B  2F45               	goto	u3585
  5856                           
  5857                           	line	115
  5858  0F4C  3001               	movlw	(01h)
  5859  0F4D  00CB               	movwf	(??___ftadd+0)+0
  5860  0F4E  084B               	movf	(??___ftadd+0)+0,w
  5861  0F4F  07D1               	addwf	(___ftadd@exp1),f
  5862  0F50  2F51               	goto	l5244
  5863                           	line	116
  5864                           	
  5865  0F51                     l2336:	
  5866                           	line	113
  5867                           	
  5868  0F51                     l5244:	
  5869  0F51  0851               	movf	(___ftadd@exp1),w
  5870  0F52  0650               	xorwf	(___ftadd@exp2),w
  5871  0F53  1D03               	skipz
  5872  0F54  2F56               	goto	u3591
  5873  0F55  2F57               	goto	u3590
  5874  0F56                     u3591:
  5875  0F56  2F44               	goto	l5242
  5876  0F57                     u3590:
  5877  0F57  2F90               	goto	l2339
  5878                           	
  5879  0F58                     l2338:	
  5880                           	line	117
  5881  0F58  2F90               	goto	l2339
  5882                           	
  5883  0F59                     l2331:	
  5884                           	
  5885  0F59                     l5246:	
  5886  0F59  0851               	movf	(___ftadd@exp1),w
  5887  0F5A  0250               	subwf	(___ftadd@exp2),w
  5888  0F5B  1803               	skipnc
  5889  0F5C  2F5E               	goto	u3601
  5890  0F5D  2F5F               	goto	u3600
  5891  0F5E                     u3601:
  5892  0F5E  2F90               	goto	l2339
  5893  0F5F                     u3600:
  5894  0F5F  2F60               	goto	l5248
  5895                           	line	120
  5896                           	
  5897  0F60                     l2341:	
  5898                           	line	121
  5899                           	
  5900  0F60                     l5248:	
  5901  0F60  3001               	movlw	01h
  5902  0F61                     u3615:
  5903  0F61  1003               	clrc
  5904  0F62  0DC5               	rlf	(___ftadd@f1),f
  5905  0F63  0DC6               	rlf	(___ftadd@f1+1),f
  5906  0F64  0DC7               	rlf	(___ftadd@f1+2),f
  5907  0F65  3EFF               	addlw	-1
  5908  0F66  1D03               	skipz
  5909  0F67  2F61               	goto	u3615
  5910                           	line	122
  5911  0F68  3001               	movlw	low(01h)
  5912  0F69  02D1               	subwf	(___ftadd@exp1),f
  5913                           	line	123
  5914                           	
  5915  0F6A                     l5250:	
  5916  0F6A  0850               	movf	(___ftadd@exp2),w
  5917  0F6B  0651               	xorwf	(___ftadd@exp1),w
  5918  0F6C  1903               	skipnz
  5919  0F6D  2F6F               	goto	u3621
  5920  0F6E  2F70               	goto	u3620
  5921  0F6F                     u3621:
  5922  0F6F  2F88               	goto	l5256
  5923  0F70                     u3620:
  5924                           	
  5925  0F70                     l5252:	
  5926  0F70  3001               	movlw	low(01h)
  5927  0F71  02CF               	subwf	(___ftadd@sign),f
  5928  0F72  084F               	movf	((___ftadd@sign)),w
  5929  0F73  3907               	andlw	07h
  5930  0F74  1D03               	btfss	status,2
  5931  0F75  2F77               	goto	u3631
  5932  0F76  2F78               	goto	u3630
  5933  0F77                     u3631:
  5934  0F77  2F60               	goto	l5248
  5935  0F78                     u3630:
  5936  0F78  2F88               	goto	l5256
  5937                           	
  5938  0F79                     l2343:	
  5939  0F79  2F88               	goto	l5256
  5940                           	
  5941  0F7A                     l2344:	
  5942                           	line	124
  5943  0F7A  2F88               	goto	l5256
  5944                           	
  5945  0F7B                     l2346:	
  5946                           	line	125
  5947                           	
  5948  0F7B                     l5254:	
  5949  0F7B  3001               	movlw	01h
  5950  0F7C                     u3645:
  5951  0F7C  1003               	clrc
  5952  0F7D  0CCA               	rrf	(___ftadd@f2+2),f
  5953  0F7E  0CC9               	rrf	(___ftadd@f2+1),f
  5954  0F7F  0CC8               	rrf	(___ftadd@f2),f
  5955  0F80  3EFF               	addlw	-1
  5956  0F81  1D03               	skipz
  5957  0F82  2F7C               	goto	u3645
  5958                           
  5959                           	line	126
  5960  0F83  3001               	movlw	(01h)
  5961  0F84  00CB               	movwf	(??___ftadd+0)+0
  5962  0F85  084B               	movf	(??___ftadd+0)+0,w
  5963  0F86  07D0               	addwf	(___ftadd@exp2),f
  5964  0F87  2F88               	goto	l5256
  5965                           	line	127
  5966                           	
  5967  0F88                     l2345:	
  5968                           	line	124
  5969                           	
  5970  0F88                     l5256:	
  5971  0F88  0851               	movf	(___ftadd@exp1),w
  5972  0F89  0650               	xorwf	(___ftadd@exp2),w
  5973  0F8A  1D03               	skipz
  5974  0F8B  2F8D               	goto	u3651
  5975  0F8C  2F8E               	goto	u3650
  5976  0F8D                     u3651:
  5977  0F8D  2F7B               	goto	l5254
  5978  0F8E                     u3650:
  5979  0F8E  2F90               	goto	l2339
  5980                           	
  5981  0F8F                     l2347:	
  5982  0F8F  2F90               	goto	l2339
  5983                           	line	128
  5984                           	
  5985  0F90                     l2340:	
  5986                           	line	129
  5987                           	
  5988  0F90                     l2339:	
  5989  0F90  1FCF               	btfss	(___ftadd@sign),(7)&7
  5990  0F91  2F93               	goto	u3661
  5991  0F92  2F94               	goto	u3660
  5992  0F93                     u3661:
  5993  0F93  2FA5               	goto	l5260
  5994  0F94                     u3660:
  5995                           	line	131
  5996                           	
  5997  0F94                     l5258:	
  5998  0F94  30FF               	movlw	0FFh
  5999  0F95  06C5               	xorwf	(___ftadd@f1),f
  6000  0F96  30FF               	movlw	0FFh
  6001  0F97  06C6               	xorwf	(___ftadd@f1+1),f
  6002  0F98  30FF               	movlw	0FFh
  6003  0F99  06C7               	xorwf	(___ftadd@f1+2),f
  6004                           	line	132
  6005  0F9A  3001               	movlw	01h
  6006  0F9B  07C5               	addwf	(___ftadd@f1),f
  6007  0F9C  3000               	movlw	0
  6008  0F9D  1803               	skipnc
  6009  0F9E  3001               movlw 1
  6010  0F9F  07C6               	addwf	(___ftadd@f1+1),f
  6011  0FA0  3000               	movlw	0
  6012  0FA1  1803               	skipnc
  6013  0FA2  3001               movlw 1
  6014  0FA3  07C7               	addwf	(___ftadd@f1+2),f
  6015  0FA4  2FA5               	goto	l5260
  6016                           	line	133
  6017                           	
  6018  0FA5                     l2348:	
  6019                           	line	134
  6020                           	
  6021  0FA5                     l5260:	
  6022  0FA5  1F4F               	btfss	(___ftadd@sign),(6)&7
  6023  0FA6  2FA8               	goto	u3671
  6024  0FA7  2FA9               	goto	u3670
  6025  0FA8                     u3671:
  6026  0FA8  2FBA               	goto	l5264
  6027  0FA9                     u3670:
  6028                           	line	136
  6029                           	
  6030  0FA9                     l5262:	
  6031  0FA9  30FF               	movlw	0FFh
  6032  0FAA  06C8               	xorwf	(___ftadd@f2),f
  6033  0FAB  30FF               	movlw	0FFh
  6034  0FAC  06C9               	xorwf	(___ftadd@f2+1),f
  6035  0FAD  30FF               	movlw	0FFh
  6036  0FAE  06CA               	xorwf	(___ftadd@f2+2),f
  6037                           	line	137
  6038  0FAF  3001               	movlw	01h
  6039  0FB0  07C8               	addwf	(___ftadd@f2),f
  6040  0FB1  3000               	movlw	0
  6041  0FB2  1803               	skipnc
  6042  0FB3  3001               movlw 1
  6043  0FB4  07C9               	addwf	(___ftadd@f2+1),f
  6044  0FB5  3000               	movlw	0
  6045  0FB6  1803               	skipnc
  6046  0FB7  3001               movlw 1
  6047  0FB8  07CA               	addwf	(___ftadd@f2+2),f
  6048  0FB9  2FBA               	goto	l5264
  6049                           	line	138
  6050                           	
  6051  0FBA                     l2349:	
  6052                           	line	139
  6053                           	
  6054  0FBA                     l5264:	
  6055  0FBA  01CF               	clrf	(___ftadd@sign)
  6056                           	line	140
  6057  0FBB  0845               	movf	(___ftadd@f1),w
  6058  0FBC  07C8               	addwf	(___ftadd@f2),f
  6059  0FBD  0846               	movf	(___ftadd@f1+1),w
  6060  0FBE  1103               	clrz
  6061  0FBF  1803               	skipnc
  6062  0FC0  0A46               	incf	(___ftadd@f1+1),w
  6063  0FC1  1903               	skipnz
  6064  0FC2  2FC4               	goto	u3681
  6065  0FC3  07C9               	addwf	(___ftadd@f2+1),f
  6066  0FC4                     u3681:
  6067  0FC4  0847               	movf	(___ftadd@f1+2),w
  6068  0FC5  1103               	clrz
  6069  0FC6  1803               	skipnc
  6070  0FC7  0A47               	incf	(___ftadd@f1+2),w
  6071  0FC8  1903               	skipnz
  6072  0FC9  2FCB               	goto	u3682
  6073  0FCA  07CA               	addwf	(___ftadd@f2+2),f
  6074  0FCB                     u3682:
  6075                           
  6076                           	line	141
  6077                           	
  6078  0FCB                     l5266:	
  6079  0FCB  1FCA               	btfss	(___ftadd@f2+2),(23)&7
  6080  0FCC  2FCE               	goto	u3691
  6081  0FCD  2FCF               	goto	u3690
  6082  0FCE                     u3691:
  6083  0FCE  2FE3               	goto	l5272
  6084  0FCF                     u3690:
  6085                           	line	142
  6086                           	
  6087  0FCF                     l5268:	
  6088  0FCF  30FF               	movlw	0FFh
  6089  0FD0  06C8               	xorwf	(___ftadd@f2),f
  6090  0FD1  30FF               	movlw	0FFh
  6091  0FD2  06C9               	xorwf	(___ftadd@f2+1),f
  6092  0FD3  30FF               	movlw	0FFh
  6093  0FD4  06CA               	xorwf	(___ftadd@f2+2),f
  6094                           	line	143
  6095  0FD5  3001               	movlw	01h
  6096  0FD6  07C8               	addwf	(___ftadd@f2),f
  6097  0FD7  3000               	movlw	0
  6098  0FD8  1803               	skipnc
  6099  0FD9  3001               movlw 1
  6100  0FDA  07C9               	addwf	(___ftadd@f2+1),f
  6101  0FDB  3000               	movlw	0
  6102  0FDC  1803               	skipnc
  6103  0FDD  3001               movlw 1
  6104  0FDE  07CA               	addwf	(___ftadd@f2+2),f
  6105                           	line	144
  6106                           	
  6107  0FDF                     l5270:	
  6108  0FDF  01CF               	clrf	(___ftadd@sign)
  6109  0FE0  1403               	bsf	status,0
  6110  0FE1  0DCF               	rlf	(___ftadd@sign),f
  6111  0FE2  2FE3               	goto	l5272
  6112                           	line	145
  6113                           	
  6114  0FE3                     l2350:	
  6115                           	line	146
  6116                           	
  6117  0FE3                     l5272:	
  6118  0FE3  0848               	movf	(___ftadd@f2),w
  6119  0FE4  00F0               	movwf	(?___ftpack)
  6120  0FE5  0849               	movf	(___ftadd@f2+1),w
  6121  0FE6  00F1               	movwf	(?___ftpack+1)
  6122  0FE7  084A               	movf	(___ftadd@f2+2),w
  6123  0FE8  00F2               	movwf	(?___ftpack+2)
  6124  0FE9  0851               	movf	(___ftadd@exp1),w
  6125  0FEA  00CB               	movwf	(??___ftadd+0)+0
  6126  0FEB  084B               	movf	(??___ftadd+0)+0,w
  6127  0FEC  00F3               	movwf	0+(?___ftpack)+03h
  6128  0FED  084F               	movf	(___ftadd@sign),w
  6129  0FEE  00CC               	movwf	(??___ftadd+1)+0
  6130  0FEF  084C               	movf	(??___ftadd+1)+0,w
  6131  0FF0  00F4               	movwf	0+(?___ftpack)+04h
  6132  0FF1  120A  158A  250B   	fcall	___ftpack
              120A  158A         
  6133  0FF6  0870               	movf	(0+(?___ftpack)),w
  6134  0FF7  1283               	bcf	status, 5	;RP0=0, select bank0
  6135  0FF8  1303               	bcf	status, 6	;RP1=0, select bank0
  6136  0FF9  00C5               	movwf	(?___ftadd)
  6137  0FFA  0871               	movf	(1+(?___ftpack)),w
  6138  0FFB  00C6               	movwf	(?___ftadd+1)
  6139  0FFC  0872               	movf	(2+(?___ftpack)),w
  6140  0FFD  00C7               	movwf	(?___ftadd+2)
  6141  0FFE  2FFF               	goto	l2325
  6142                           	
  6143  0FFF                     l5274:	
  6144                           	line	148
  6145                           	
  6146  0FFF                     l2325:	
  6147  0FFF  0008               	return
  6148                           	opt stack 0
  6149                           GLOBAL	__end_of___ftadd
  6150  1000                     	__end_of___ftadd:
  6151 ;; =============== function ___ftadd ends ============
  6152                           
  6153                           	signat	___ftadd,8315
  6154                           	global	_send_config
  6155                           psect	text811,local,class=CODE,delta=2
  6156                           global __ptext811
  6157  0A07                     __ptext811:
  6158                           
  6159 ;; *************** function _send_config *****************
  6160 ;; Defined at:
  6161 ;;		line 356 in file "Main.c"
  6162 ;; Parameters:    Size  Location     Type
  6163 ;;  data            1    wreg     unsigned char 
  6164 ;; Auto vars:     Size  Location     Type
  6165 ;;  data            1    8[COMMON] unsigned char 
  6166 ;; Return value:  Size  Location     Type
  6167 ;;		None               void
  6168 ;; Registers used:
  6169 ;;		wreg, status,2, status,0, pclath, cstack
  6170 ;; Tracked objects:
  6171 ;;		On entry : 0/0
  6172 ;;		On exit  : 0/0
  6173 ;;		Unchanged: 0/0
  6174 ;; Data sizes:     COMMON   BANK0   BANK1   BANK3   BANK2
  6175 ;;      Params:         0       0       0       0       0
  6176 ;;      Locals:         1       0       0       0       0
  6177 ;;      Temps:          0       0       0       0       0
  6178 ;;      Totals:         1       0       0       0       0
  6179 ;;Total ram usage:        1 bytes
  6180 ;; Hardware stack levels used:    1
  6181 ;; Hardware stack levels required when called:    1
  6182 ;; This function calls:
  6183 ;;		_delay
  6184 ;; This function is called by:
  6185 ;;		_lcdinit
  6186 ;;		_lcd_goto
  6187 ;;		_lcd_clr
  6188 ;; This function uses a non-reentrant model
  6189 ;;
  6190                           psect	text811
  6191                           	file	"Main.c"
  6192                           	line	356
  6193                           	global	__size_of_send_config
  6194  0025                     	__size_of_send_config	equ	__end_of_send_config-_send_config
  6195                           	
  6196  0A07                     _send_config:	
  6197                           	opt	stack 5
  6198                           ; Regs used in _send_config: [wreg+status,2+status,0+pclath+cstack]
  6199                           ;send_config@data stored from wreg
  6200  0A07  00F8               	movwf	(send_config@data)
  6201                           	line	357
  6202                           	
  6203  0A08                     l5194:	
  6204                           ;Main.c: 357: RB4=0;
  6205  0A08  1283               	bcf	status, 5	;RP0=0, select bank0
  6206  0A09  1303               	bcf	status, 6	;RP1=0, select bank0
  6207  0A0A  1206               	bcf	(52/8),(52)&7
  6208                           	line	358
  6209                           	
  6210  0A0B                     l5196:	
  6211                           ;Main.c: 358: PORTD=data;
  6212  0A0B  0878               	movf	(send_config@data),w
  6213  0A0C  0088               	movwf	(8)	;volatile
  6214                           	line	359
  6215                           	
  6216  0A0D                     l5198:	
  6217                           ;Main.c: 359: RB5=1;
  6218  0A0D  1686               	bsf	(53/8),(53)&7
  6219                           	line	360
  6220                           	
  6221  0A0E                     l5200:	
  6222                           ;Main.c: 360: delay(50);
  6223  0A0E  3000               	movlw	0
  6224  0A0F  00F3               	movwf	(?_delay+3)
  6225  0A10  3000               	movlw	0
  6226  0A11  00F2               	movwf	(?_delay+2)
  6227  0A12  3000               	movlw	0
  6228  0A13  00F1               	movwf	(?_delay+1)
  6229  0A14  3032               	movlw	032h
  6230  0A15  00F0               	movwf	(?_delay)
  6231                           
  6232  0A16  120A  158A  22D2   	fcall	_delay
              120A  158A         
  6233                           	line	361
  6234                           	
  6235  0A1B                     l5202:	
  6236                           ;Main.c: 361: RB5=0;
  6237  0A1B  1283               	bcf	status, 5	;RP0=0, select bank0
  6238  0A1C  1303               	bcf	status, 6	;RP1=0, select bank0
  6239  0A1D  1286               	bcf	(53/8),(53)&7
  6240                           	line	362
  6241                           	
  6242  0A1E                     l5204:	
  6243                           ;Main.c: 362: delay(50);
  6244  0A1E  3000               	movlw	0
  6245  0A1F  00F3               	movwf	(?_delay+3)
  6246  0A20  3000               	movlw	0
  6247  0A21  00F2               	movwf	(?_delay+2)
  6248  0A22  3000               	movlw	0
  6249  0A23  00F1               	movwf	(?_delay+1)
  6250  0A24  3032               	movlw	032h
  6251  0A25  00F0               	movwf	(?_delay)
  6252                           
  6253  0A26  120A  158A  22D2   	fcall	_delay
              120A  158A         
  6254                           	line	363
  6255                           	
  6256  0A2B                     l1232:	
  6257  0A2B  0008               	return
  6258                           	opt stack 0
  6259                           GLOBAL	__end_of_send_config
  6260  0A2C                     	__end_of_send_config:
  6261 ;; =============== function _send_config ends ============
  6262                           
  6263                           	signat	_send_config,4216
  6264                           	global	_send_char
  6265                           psect	text812,local,class=CODE,delta=2
  6266                           global __ptext812
  6267  09E2                     __ptext812:
  6268                           
  6269 ;; *************** function _send_char *****************
  6270 ;; Defined at:
  6271 ;;		line 366 in file "Main.c"
  6272 ;; Parameters:    Size  Location     Type
  6273 ;;  data            1    wreg     unsigned char 
  6274 ;; Auto vars:     Size  Location     Type
  6275 ;;  data            1    8[COMMON] unsigned char 
  6276 ;; Return value:  Size  Location     Type
  6277 ;;		None               void
  6278 ;; Registers used:
  6279 ;;		wreg, status,2, status,0, pclath, cstack
  6280 ;; Tracked objects:
  6281 ;;		On entry : 0/0
  6282 ;;		On exit  : 0/0
  6283 ;;		Unchanged: 0/0
  6284 ;; Data sizes:     COMMON   BANK0   BANK1   BANK3   BANK2
  6285 ;;      Params:         0       0       0       0       0
  6286 ;;      Locals:         1       0       0       0       0
  6287 ;;      Temps:          0       0       0       0       0
  6288 ;;      Totals:         1       0       0       0       0
  6289 ;;Total ram usage:        1 bytes
  6290 ;; Hardware stack levels used:    1
  6291 ;; Hardware stack levels required when called:    1
  6292 ;; This function calls:
  6293 ;;		_delay
  6294 ;; This function is called by:
  6295 ;;		_PID_MENU
  6296 ;;		_send_string
  6297 ;;		_lcd_num
  6298 ;; This function uses a non-reentrant model
  6299 ;;
  6300                           psect	text812
  6301                           	file	"Main.c"
  6302                           	line	366
  6303                           	global	__size_of_send_char
  6304  0025                     	__size_of_send_char	equ	__end_of_send_char-_send_char
  6305                           	
  6306  09E2                     _send_char:	
  6307                           	opt	stack 5
  6308                           ; Regs used in _send_char: [wreg+status,2+status,0+pclath+cstack]
  6309                           ;send_char@data stored from wreg
  6310  09E2  00F8               	movwf	(send_char@data)
  6311                           	line	367
  6312                           	
  6313  09E3                     l5182:	
  6314                           ;Main.c: 367: RB4=1;
  6315  09E3  1283               	bcf	status, 5	;RP0=0, select bank0
  6316  09E4  1303               	bcf	status, 6	;RP1=0, select bank0
  6317  09E5  1606               	bsf	(52/8),(52)&7
  6318                           	line	368
  6319                           	
  6320  09E6                     l5184:	
  6321                           ;Main.c: 368: PORTD=data;
  6322  09E6  0878               	movf	(send_char@data),w
  6323  09E7  0088               	movwf	(8)	;volatile
  6324                           	line	369
  6325                           	
  6326  09E8                     l5186:	
  6327                           ;Main.c: 369: RB5=1;
  6328  09E8  1686               	bsf	(53/8),(53)&7
  6329                           	line	370
  6330                           	
  6331  09E9                     l5188:	
  6332                           ;Main.c: 370: delay(10);
  6333  09E9  3000               	movlw	0
  6334  09EA  00F3               	movwf	(?_delay+3)
  6335  09EB  3000               	movlw	0
  6336  09EC  00F2               	movwf	(?_delay+2)
  6337  09ED  3000               	movlw	0
  6338  09EE  00F1               	movwf	(?_delay+1)
  6339  09EF  300A               	movlw	0Ah
  6340  09F0  00F0               	movwf	(?_delay)
  6341                           
  6342  09F1  120A  158A  22D2   	fcall	_delay
              120A  158A         
  6343                           	line	371
  6344                           	
  6345  09F6                     l5190:	
  6346                           ;Main.c: 371: RB5=0;
  6347  09F6  1283               	bcf	status, 5	;RP0=0, select bank0
  6348  09F7  1303               	bcf	status, 6	;RP1=0, select bank0
  6349  09F8  1286               	bcf	(53/8),(53)&7
  6350                           	line	372
  6351                           	
  6352  09F9                     l5192:	
  6353                           ;Main.c: 372: delay(10);
  6354  09F9  3000               	movlw	0
  6355  09FA  00F3               	movwf	(?_delay+3)
  6356  09FB  3000               	movlw	0
  6357  09FC  00F2               	movwf	(?_delay+2)
  6358  09FD  3000               	movlw	0
  6359  09FE  00F1               	movwf	(?_delay+1)
  6360  09FF  300A               	movlw	0Ah
  6361  0A00  00F0               	movwf	(?_delay)
  6362                           
  6363  0A01  120A  158A  22D2   	fcall	_delay
              120A  158A         
  6364                           	line	373
  6365                           	
  6366  0A06                     l1235:	
  6367  0A06  0008               	return
  6368                           	opt stack 0
  6369                           GLOBAL	__end_of_send_char
  6370  0A07                     	__end_of_send_char:
  6371 ;; =============== function _send_char ends ============
  6372                           
  6373                           	signat	_send_char,4216
  6374                           	global	_motorspeed
  6375                           psect	text813,local,class=CODE,delta=2
  6376                           global __ptext813
  6377  088B                     __ptext813:
  6378                           
  6379 ;; *************** function _motorspeed *****************
  6380 ;; Defined at:
  6381 ;;		line 323 in file "Main.c"
  6382 ;; Parameters:    Size  Location     Type
  6383 ;;  uc_left_moto    1    wreg     unsigned char 
  6384 ;;  uc_right_mot    1    1[COMMON] unsigned char 
  6385 ;; Auto vars:     Size  Location     Type
  6386 ;;  uc_left_moto    1    2[COMMON] unsigned char 
  6387 ;; Return value:  Size  Location     Type
  6388 ;;		None               void
  6389 ;; Registers used:
  6390 ;;		wreg, status,2, status,0, pclath, cstack
  6391 ;; Tracked objects:
  6392 ;;		On entry : 0/0
  6393 ;;		On exit  : 0/0
  6394 ;;		Unchanged: 0/0
  6395 ;; Data sizes:     COMMON   BANK0   BANK1   BANK3   BANK2
  6396 ;;      Params:         1       0       0       0       0
  6397 ;;      Locals:         1       0       0       0       0
  6398 ;;      Temps:          0       0       0       0       0
  6399 ;;      Totals:         2       0       0       0       0
  6400 ;;Total ram usage:        2 bytes
  6401 ;; Hardware stack levels used:    1
  6402 ;; Hardware stack levels required when called:    1
  6403 ;; This function calls:
  6404 ;;		_set_pwmr
  6405 ;;		_set_pwml
  6406 ;; This function is called by:
  6407 ;;		_main
  6408 ;; This function uses a non-reentrant model
  6409 ;;
  6410                           psect	text813
  6411                           	file	"Main.c"
  6412                           	line	323
  6413                           	global	__size_of_motorspeed
  6414  000E                     	__size_of_motorspeed	equ	__end_of_motorspeed-_motorspeed
  6415                           	
  6416  088B                     _motorspeed:	
  6417                           	opt	stack 6
  6418                           ; Regs used in _motorspeed: [wreg+status,2+status,0+pclath+cstack]
  6419                           ;motorspeed@uc_left_motor_speed stored from wreg
  6420                           	line	325
  6421  088B  00F2               	movwf	(motorspeed@uc_left_motor_speed)
  6422                           	
  6423  088C                     l5180:	
  6424                           ;Main.c: 325: set_pwmr(uc_right_motor_speed);
  6425  088C  0871               	movf	(motorspeed@uc_right_motor_speed),w
  6426  088D  120A  158A  2058   	fcall	_set_pwmr
              120A  158A         
  6427                           	line	326
  6428                           ;Main.c: 326: set_pwml(uc_left_motor_speed);
  6429  0892  0872               	movf	(motorspeed@uc_left_motor_speed),w
  6430  0893  120A  118A  2004   	fcall	_set_pwml
              120A  158A         
  6431                           	line	327
  6432                           	
  6433  0898                     l1221:	
  6434  0898  0008               	return
  6435                           	opt stack 0
  6436                           GLOBAL	__end_of_motorspeed
  6437  0899                     	__end_of_motorspeed:
  6438 ;; =============== function _motorspeed ends ============
  6439                           
  6440                           	signat	_motorspeed,8312
  6441                           	global	_UART_DUMP
  6442                           psect	text814,local,class=CODE,delta=2
  6443                           global __ptext814
  6444  0899                     __ptext814:
  6445                           
  6446 ;; *************** function _UART_DUMP *****************
  6447 ;; Defined at:
  6448 ;;		line 486 in file "Main.c"
  6449 ;; Parameters:    Size  Location     Type
  6450 ;;		None
  6451 ;; Auto vars:     Size  Location     Type
  6452 ;;  dump            1    7[COMMON] unsigned char 
  6453 ;; Return value:  Size  Location     Type
  6454 ;;		None               void
  6455 ;; Registers used:
  6456 ;;		wreg, status,2, status,0, pclath, cstack
  6457 ;; Tracked objects:
  6458 ;;		On entry : 0/0
  6459 ;;		On exit  : 0/0
  6460 ;;		Unchanged: 0/0
  6461 ;; Data sizes:     COMMON   BANK0   BANK1   BANK3   BANK2
  6462 ;;      Params:         0       0       0       0       0
  6463 ;;      Locals:         1       0       0       0       0
  6464 ;;      Temps:          1       0       0       0       0
  6465 ;;      Totals:         2       0       0       0       0
  6466 ;;Total ram usage:        2 bytes
  6467 ;; Hardware stack levels used:    1
  6468 ;; Hardware stack levels required when called:    1
  6469 ;; This function calls:
  6470 ;;		_UART_REC
  6471 ;; This function is called by:
  6472 ;;		_LSA08_GetPosition
  6473 ;; This function uses a non-reentrant model
  6474 ;;
  6475                           psect	text814
  6476                           	file	"Main.c"
  6477                           	line	486
  6478                           	global	__size_of_UART_DUMP
  6479  0012                     	__size_of_UART_DUMP	equ	__end_of_UART_DUMP-_UART_DUMP
  6480                           	
  6481  0899                     _UART_DUMP:	
  6482                           	opt	stack 5
  6483                           ; Regs used in _UART_DUMP: [wreg+status,2+status,0+pclath+cstack]
  6484                           	line	489
  6485                           	
  6486  0899                     l5174:	
  6487                           ;Main.c: 487: unsigned char dump;
  6488                           ;Main.c: 489: while (RCIF == 1)
  6489  0899  28A3               	goto	l5178
  6490                           	
  6491  089A                     l1287:	
  6492                           	line	491
  6493                           	
  6494  089A                     l5176:	
  6495                           ;Main.c: 490: {
  6496                           ;Main.c: 491: dump=UART_REC();
  6497  089A  120A  158A  23C5   	fcall	_UART_REC
              120A  158A         
  6498  089F  00F6               	movwf	(??_UART_DUMP+0)+0
  6499  08A0  0876               	movf	(??_UART_DUMP+0)+0,w
  6500  08A1  00F7               	movwf	(UART_DUMP@dump)
  6501  08A2  28A3               	goto	l5178
  6502                           	line	492
  6503                           	
  6504  08A3                     l1286:	
  6505                           	line	489
  6506                           	
  6507  08A3                     l5178:	
  6508  08A3  1283               	bcf	status, 5	;RP0=0, select bank0
  6509  08A4  1303               	bcf	status, 6	;RP1=0, select bank0
  6510  08A5  1A8C               	btfsc	(101/8),(101)&7
  6511  08A6  28A8               	goto	u3451
  6512  08A7  28A9               	goto	u3450
  6513  08A8                     u3451:
  6514  08A8  289A               	goto	l5176
  6515  08A9                     u3450:
  6516  08A9  28AA               	goto	l1289
  6517                           	
  6518  08AA                     l1288:	
  6519                           	line	493
  6520                           	
  6521  08AA                     l1289:	
  6522  08AA  0008               	return
  6523                           	opt stack 0
  6524                           GLOBAL	__end_of_UART_DUMP
  6525  08AB                     	__end_of_UART_DUMP:
  6526 ;; =============== function _UART_DUMP ends ============
  6527                           
  6528                           	signat	_UART_DUMP,88
  6529                           	global	_UART_RESPONSE
  6530                           psect	text815,local,class=CODE,delta=2
  6531                           global __ptext815
  6532  000A                     __ptext815:
  6533                           
  6534 ;; *************** function _UART_RESPONSE *****************
  6535 ;; Defined at:
  6536 ;;		line 227 in file "LSA08.h"
  6537 ;; Parameters:    Size  Location     Type
  6538 ;;  rec_bytes       1    wreg     unsigned char 
  6539 ;; Auto vars:     Size  Location     Type
  6540 ;;  rec_bytes       1    7[COMMON] unsigned char 
  6541 ;; Return value:  Size  Location     Type
  6542 ;;                  1    wreg      unsigned char 
  6543 ;; Registers used:
  6544 ;;		wreg, status,2, status,0, pclath, cstack
  6545 ;; Tracked objects:
  6546 ;;		On entry : 0/0
  6547 ;;		On exit  : 0/0
  6548 ;;		Unchanged: 0/0
  6549 ;; Data sizes:     COMMON   BANK0   BANK1   BANK3   BANK2
  6550 ;;      Params:         0       0       0       0       0
  6551 ;;      Locals:         1       0       0       0       0
  6552 ;;      Temps:          1       0       0       0       0
  6553 ;;      Totals:         2       0       0       0       0
  6554 ;;Total ram usage:        2 bytes
  6555 ;; Hardware stack levels used:    1
  6556 ;; Hardware stack levels required when called:    1
  6557 ;; This function calls:
  6558 ;;		_UART_REC
  6559 ;; This function is called by:
  6560 ;;		_SEND_PACKET
  6561 ;; This function uses a non-reentrant model
  6562 ;;
  6563                           psect	text815
  6564                           	file	"LSA08.h"
  6565                           	line	227
  6566                           	global	__size_of_UART_RESPONSE
  6567  0035                     	__size_of_UART_RESPONSE	equ	__end_of_UART_RESPONSE-_UART_RESPONSE
  6568                           	
  6569  000A                     _UART_RESPONSE:	
  6570                           	opt	stack 3
  6571                           ; Regs used in _UART_RESPONSE: [wreg+status,2+status,0+pclath+cstack]
  6572                           ;UART_RESPONSE@rec_bytes stored from wreg
  6573                           	line	229
  6574  000A  00F7               	movwf	(UART_RESPONSE@rec_bytes)
  6575                           	
  6576  000B                     l5148:	
  6577                           ;LSA08.h: 229: rec[0]=UART_REC();
  6578  000B  120A  158A  23C5   	fcall	_UART_REC
              120A  118A         
  6579  0010  00F6               	movwf	(??_UART_RESPONSE+0)+0
  6580  0011  0876               	movf	(??_UART_RESPONSE+0)+0,w
  6581  0012  1683               	bsf	status, 5	;RP0=1, select bank1
  6582  0013  1303               	bcf	status, 6	;RP1=0, select bank1
  6583  0014  00B0               	movwf	(_rec)^080h
  6584                           	line	230
  6585                           	
  6586  0015                     l5150:	
  6587                           ;LSA08.h: 230: if(rec_bytes==1)
  6588  0015  0877               	movf	(UART_RESPONSE@rec_bytes),w
  6589  0016  3A01               	xorlw	01h
  6590  0017  1D03               	skipz
  6591  0018  281A               	goto	u3421
  6592  0019  281B               	goto	u3420
  6593  001A                     u3421:
  6594  001A  281D               	goto	l5154
  6595  001B                     u3420:
  6596  001B  283E               	goto	l1090
  6597                           	line	231
  6598                           	
  6599  001C                     l5152:	
  6600                           ;LSA08.h: 231: return;
  6601  001C  283E               	goto	l1090
  6602                           	
  6603  001D                     l1089:	
  6604                           	line	233
  6605                           	
  6606  001D                     l5154:	
  6607                           ;LSA08.h: 233: rec[1]=UART_REC();
  6608  001D  120A  158A  23C5   	fcall	_UART_REC
              120A  118A         
  6609  0022  00F6               	movwf	(??_UART_RESPONSE+0)+0
  6610  0023  0876               	movf	(??_UART_RESPONSE+0)+0,w
  6611  0024  1683               	bsf	status, 5	;RP0=1, select bank1
  6612  0025  1303               	bcf	status, 6	;RP1=0, select bank1
  6613  0026  00B1               	movwf	0+(_rec)^080h+01h
  6614                           	line	236
  6615                           	
  6616  0027                     l5156:	
  6617                           ;LSA08.h: 236: if (rec[0]== 'O') {
  6618  0027  0830               	movf	(_rec)^080h,w
  6619  0028  3A4F               	xorlw	04Fh
  6620  0029  1D03               	skipz
  6621  002A  282C               	goto	u3431
  6622  002B  282D               	goto	u3430
  6623  002C                     u3431:
  6624  002C  283B               	goto	l5170
  6625  002D                     u3430:
  6626                           	line	237
  6627                           	
  6628  002D                     l5158:	
  6629                           ;LSA08.h: 237: if (rec[1] == 'K') {
  6630  002D  0831               	movf	0+(_rec)^080h+01h,w
  6631  002E  3A4B               	xorlw	04Bh
  6632  002F  1D03               	skipz
  6633  0030  2832               	goto	u3441
  6634  0031  2833               	goto	u3440
  6635  0032                     u3441:
  6636  0032  2837               	goto	l5166
  6637  0033                     u3440:
  6638                           	line	238
  6639                           	
  6640  0033                     l5160:	
  6641                           ;LSA08.h: 238: return (1);
  6642  0033  3001               	movlw	(01h)
  6643  0034  283E               	goto	l1090
  6644                           	
  6645  0035                     l5162:	
  6646  0035  283E               	goto	l1090
  6647                           	line	239
  6648                           	
  6649  0036                     l5164:	
  6650                           ;LSA08.h: 239: } else
  6651  0036  283E               	goto	l1090
  6652                           	
  6653  0037                     l1092:	
  6654                           	line	240
  6655                           	
  6656  0037                     l5166:	
  6657                           ;LSA08.h: 240: return (0);
  6658  0037  3000               	movlw	(0)
  6659  0038  283E               	goto	l1090
  6660                           	
  6661  0039                     l5168:	
  6662  0039  283E               	goto	l1090
  6663                           	
  6664  003A                     l1093:	
  6665                           	line	241
  6666                           ;LSA08.h: 241: }
  6667  003A  283E               	goto	l1090
  6668                           	line	242
  6669                           	
  6670  003B                     l1091:	
  6671                           	line	243
  6672                           	
  6673  003B                     l5170:	
  6674                           ;LSA08.h: 242: else
  6675                           ;LSA08.h: 243: return(0);
  6676  003B  3000               	movlw	(0)
  6677  003C  283E               	goto	l1090
  6678                           	
  6679  003D                     l5172:	
  6680  003D  283E               	goto	l1090
  6681                           	
  6682  003E                     l1094:	
  6683                           	line	244
  6684                           	
  6685  003E                     l1090:	
  6686  003E  0008               	return
  6687                           	opt stack 0
  6688                           GLOBAL	__end_of_UART_RESPONSE
  6689  003F                     	__end_of_UART_RESPONSE:
  6690 ;; =============== function _UART_RESPONSE ends ============
  6691                           
  6692                           	signat	_UART_RESPONSE,4217
  6693                           	global	___ftge
  6694                           psect	text816,local,class=CODE,delta=2
  6695                           global __ptext816
  6696  0C9D                     __ptext816:
  6697                           
  6698 ;; *************** function ___ftge *****************
  6699 ;; Defined at:
  6700 ;;		line 5 in file "C:\Program Files\HI-TECH Software\PICC\9.83\sources\ftge.c"
  6701 ;; Parameters:    Size  Location     Type
  6702 ;;  ff1             3    0[BANK0 ] float 
  6703 ;;  ff2             3    3[BANK0 ] float 
  6704 ;; Auto vars:     Size  Location     Type
  6705 ;;		None
  6706 ;; Return value:  Size  Location     Type
  6707 ;;		None               void
  6708 ;; Registers used:
  6709 ;;		wreg, status,2, status,0
  6710 ;; Tracked objects:
  6711 ;;		On entry : 0/0
  6712 ;;		On exit  : 0/0
  6713 ;;		Unchanged: 0/0
  6714 ;; Data sizes:     COMMON   BANK0   BANK1   BANK3   BANK2
  6715 ;;      Params:         0       6       0       0       0
  6716 ;;      Locals:         0       0       0       0       0
  6717 ;;      Temps:          0       6       0       0       0
  6718 ;;      Totals:         0      12       0       0       0
  6719 ;;Total ram usage:       12 bytes
  6720 ;; Hardware stack levels used:    1
  6721 ;; This function calls:
  6722 ;;		Nothing
  6723 ;; This function is called by:
  6724 ;;		_PID_MENU
  6725 ;; This function uses a non-reentrant model
  6726 ;;
  6727                           psect	text816
  6728                           	file	"C:\Program Files\HI-TECH Software\PICC\9.83\sources\ftge.c"
  6729                           	line	5
  6730                           	global	__size_of___ftge
  6731  006E                     	__size_of___ftge	equ	__end_of___ftge-___ftge
  6732                           	
  6733  0C9D                     ___ftge:	
  6734                           	opt	stack 6
  6735                           ; Regs used in ___ftge: [wreg+status,2+status,0]
  6736                           	line	6
  6737                           	
  6738  0C9D                     l5082:	
  6739  0C9D  1283               	bcf	status, 5	;RP0=0, select bank0
  6740  0C9E  1303               	bcf	status, 6	;RP1=0, select bank0
  6741  0C9F  1FA2               	btfss	(___ftge@ff1+2),(23)&7
  6742  0CA0  2CA2               	goto	u3311
  6743  0CA1  2CA3               	goto	u3310
  6744  0CA2                     u3311:
  6745  0CA2  2CC9               	goto	l5086
  6746  0CA3                     u3310:
  6747                           	line	7
  6748                           	
  6749  0CA3                     l5084:	
  6750  0CA3  3000               	movlw	0
  6751  0CA4  00A6               	movwf	((??___ftge+0)+0)
  6752  0CA5  3000               	movlw	0
  6753  0CA6  00A7               	movwf	((??___ftge+0)+0+1)
  6754  0CA7  3080               	movlw	080h
  6755  0CA8  00A8               	movwf	((??___ftge+0)+0+2)
  6756  0CA9  0920               	comf	(___ftge@ff1),w
  6757  0CAA  00A9               	movwf	(??___ftge+3)+0
  6758  0CAB  0921               	comf	(___ftge@ff1+1),w
  6759  0CAC  00AA               	movwf	((??___ftge+3)+0+1)
  6760  0CAD  0922               	comf	(___ftge@ff1+2),w
  6761  0CAE  00AB               	movwf	((??___ftge+3)+0+2)
  6762  0CAF  0AA9               	incf	(??___ftge+3)+0,f
  6763  0CB0  1903               	skipnz
  6764  0CB1  0AAA               	incf	((??___ftge+3)+0+1),f
  6765  0CB2  1903               	skipnz
  6766  0CB3  0AAB               	incf	((??___ftge+3)+0+2),f
  6767  0CB4  0829               	movf	0+(??___ftge+3)+0,w
  6768  0CB5  07A6               	addwf	(??___ftge+0)+0,f
  6769  0CB6  082A               	movf	1+(??___ftge+3)+0,w
  6770  0CB7  1803               	skipnc
  6771  0CB8  0F2A               	incfsz	1+(??___ftge+3)+0,w
  6772  0CB9  2CBB               	goto	u3321
  6773  0CBA  2CBC               	goto	u3322
  6774  0CBB                     u3321:
  6775  0CBB  07A7               	addwf	(??___ftge+0)+1,f
  6776                           	
  6777  0CBC                     u3322:
  6778  0CBC  082B               	movf	2+(??___ftge+3)+0,w
  6779  0CBD  1803               	skipnc
  6780  0CBE  0F2B               	incfsz	2+(??___ftge+3)+0,w
  6781  0CBF  2CC1               	goto	u3323
  6782  0CC0  2CC2               	goto	u3324
  6783  0CC1                     u3323:
  6784  0CC1  07A8               	addwf	(??___ftge+0)+2,f
  6785                           	
  6786  0CC2                     u3324:
  6787  0CC2  0826               	movf	0+(??___ftge+0)+0,w
  6788  0CC3  00A0               	movwf	(___ftge@ff1)
  6789  0CC4  0827               	movf	1+(??___ftge+0)+0,w
  6790  0CC5  00A1               	movwf	(___ftge@ff1+1)
  6791  0CC6  0828               	movf	2+(??___ftge+0)+0,w
  6792  0CC7  00A2               	movwf	(___ftge@ff1+2)
  6793  0CC8  2CC9               	goto	l5086
  6794                           	
  6795  0CC9                     l2445:	
  6796                           	line	8
  6797                           	
  6798  0CC9                     l5086:	
  6799  0CC9  1FA5               	btfss	(___ftge@ff2+2),(23)&7
  6800  0CCA  2CCC               	goto	u3331
  6801  0CCB  2CCD               	goto	u3330
  6802  0CCC                     u3331:
  6803  0CCC  2CF3               	goto	l5090
  6804  0CCD                     u3330:
  6805                           	line	9
  6806                           	
  6807  0CCD                     l5088:	
  6808  0CCD  3000               	movlw	0
  6809  0CCE  00A6               	movwf	((??___ftge+0)+0)
  6810  0CCF  3000               	movlw	0
  6811  0CD0  00A7               	movwf	((??___ftge+0)+0+1)
  6812  0CD1  3080               	movlw	080h
  6813  0CD2  00A8               	movwf	((??___ftge+0)+0+2)
  6814  0CD3  0923               	comf	(___ftge@ff2),w
  6815  0CD4  00A9               	movwf	(??___ftge+3)+0
  6816  0CD5  0924               	comf	(___ftge@ff2+1),w
  6817  0CD6  00AA               	movwf	((??___ftge+3)+0+1)
  6818  0CD7  0925               	comf	(___ftge@ff2+2),w
  6819  0CD8  00AB               	movwf	((??___ftge+3)+0+2)
  6820  0CD9  0AA9               	incf	(??___ftge+3)+0,f
  6821  0CDA  1903               	skipnz
  6822  0CDB  0AAA               	incf	((??___ftge+3)+0+1),f
  6823  0CDC  1903               	skipnz
  6824  0CDD  0AAB               	incf	((??___ftge+3)+0+2),f
  6825  0CDE  0829               	movf	0+(??___ftge+3)+0,w
  6826  0CDF  07A6               	addwf	(??___ftge+0)+0,f
  6827  0CE0  082A               	movf	1+(??___ftge+3)+0,w
  6828  0CE1  1803               	skipnc
  6829  0CE2  0F2A               	incfsz	1+(??___ftge+3)+0,w
  6830  0CE3  2CE5               	goto	u3341
  6831  0CE4  2CE6               	goto	u3342
  6832  0CE5                     u3341:
  6833  0CE5  07A7               	addwf	(??___ftge+0)+1,f
  6834                           	
  6835  0CE6                     u3342:
  6836  0CE6  082B               	movf	2+(??___ftge+3)+0,w
  6837  0CE7  1803               	skipnc
  6838  0CE8  0F2B               	incfsz	2+(??___ftge+3)+0,w
  6839  0CE9  2CEB               	goto	u3343
  6840  0CEA  2CEC               	goto	u3344
  6841  0CEB                     u3343:
  6842  0CEB  07A8               	addwf	(??___ftge+0)+2,f
  6843                           	
  6844  0CEC                     u3344:
  6845  0CEC  0826               	movf	0+(??___ftge+0)+0,w
  6846  0CED  00A3               	movwf	(___ftge@ff2)
  6847  0CEE  0827               	movf	1+(??___ftge+0)+0,w
  6848  0CEF  00A4               	movwf	(___ftge@ff2+1)
  6849  0CF0  0828               	movf	2+(??___ftge+0)+0,w
  6850  0CF1  00A5               	movwf	(___ftge@ff2+2)
  6851  0CF2  2CF3               	goto	l5090
  6852                           	
  6853  0CF3                     l2446:	
  6854                           	line	10
  6855                           	
  6856  0CF3                     l5090:	
  6857  0CF3  3080               	movlw	080h
  6858  0CF4  06A2               	xorwf	(___ftge@ff1+2),f
  6859                           	line	11
  6860                           	
  6861  0CF5                     l5092:	
  6862  0CF5  3080               	movlw	080h
  6863  0CF6  06A5               	xorwf	(___ftge@ff2+2),f
  6864                           	line	12
  6865                           	
  6866  0CF7                     l5094:	
  6867  0CF7  0825               	movf	(___ftge@ff2+2),w
  6868  0CF8  0222               	subwf	(___ftge@ff1+2),w
  6869  0CF9  1D03               	skipz
  6870  0CFA  2D01               	goto	u3355
  6871  0CFB  0824               	movf	(___ftge@ff2+1),w
  6872  0CFC  0221               	subwf	(___ftge@ff1+1),w
  6873  0CFD  1D03               	skipz
  6874  0CFE  2D01               	goto	u3355
  6875  0CFF  0823               	movf	(___ftge@ff2),w
  6876  0D00  0220               	subwf	(___ftge@ff1),w
  6877  0D01                     u3355:
  6878  0D01  1803               	skipnc
  6879  0D02  2D04               	goto	u3351
  6880  0D03  2D05               	goto	u3350
  6881  0D04                     u3351:
  6882  0D04  2D07               	goto	l5098
  6883  0D05                     u3350:
  6884                           	
  6885  0D05                     l5096:	
  6886  0D05  1003               	clrc
  6887                           	
  6888  0D06  2D0A               	goto	l2447
  6889                           	
  6890  0D07                     l4710:	
  6891                           	
  6892  0D07                     l5098:	
  6893  0D07  1403               	setc
  6894                           	
  6895  0D08  2D0A               	goto	l2447
  6896                           	
  6897  0D09                     l4712:	
  6898  0D09  2D0A               	goto	l2447
  6899                           	
  6900  0D0A                     l5100:	
  6901                           	line	13
  6902                           	
  6903  0D0A                     l2447:	
  6904  0D0A  0008               	return
  6905                           	opt stack 0
  6906                           GLOBAL	__end_of___ftge
  6907  0D0B                     	__end_of___ftge:
  6908 ;; =============== function ___ftge ends ============
  6909                           
  6910                           	signat	___ftge,8312
  6911                           	global	___ftneg
  6912                           psect	text817,local,class=CODE,delta=2
  6913                           global __ptext817
  6914  0871                     __ptext817:
  6915                           
  6916 ;; *************** function ___ftneg *****************
  6917 ;; Defined at:
  6918 ;;		line 16 in file "C:\Program Files\HI-TECH Software\PICC\9.83\sources\ftneg.c"
  6919 ;; Parameters:    Size  Location     Type
  6920 ;;  f1              3    8[COMMON] float 
  6921 ;; Auto vars:     Size  Location     Type
  6922 ;;		None
  6923 ;; Return value:  Size  Location     Type
  6924 ;;                  3    8[COMMON] float 
  6925 ;; Registers used:
  6926 ;;		wreg
  6927 ;; Tracked objects:
  6928 ;;		On entry : 0/0
  6929 ;;		On exit  : 0/0
  6930 ;;		Unchanged: 0/0
  6931 ;; Data sizes:     COMMON   BANK0   BANK1   BANK3   BANK2
  6932 ;;      Params:         3       0       0       0       0
  6933 ;;      Locals:         0       0       0       0       0
  6934 ;;      Temps:          0       0       0       0       0
  6935 ;;      Totals:         3       0       0       0       0
  6936 ;;Total ram usage:        3 bytes
  6937 ;; Hardware stack levels used:    1
  6938 ;; This function calls:
  6939 ;;		Nothing
  6940 ;; This function is called by:
  6941 ;;		_PID_MENU
  6942 ;; This function uses a non-reentrant model
  6943 ;;
  6944                           psect	text817
  6945                           	file	"C:\Program Files\HI-TECH Software\PICC\9.83\sources\ftneg.c"
  6946                           	line	16
  6947                           	global	__size_of___ftneg
  6948  000C                     	__size_of___ftneg	equ	__end_of___ftneg-___ftneg
  6949                           	
  6950  0871                     ___ftneg:	
  6951                           	opt	stack 6
  6952                           ; Regs used in ___ftneg: [wreg]
  6953                           	line	17
  6954                           	
  6955  0871                     l5074:	
  6956  0871  087A               	movf	(___ftneg@f1+2),w
  6957  0872  0479               	iorwf	(___ftneg@f1+1),w
  6958  0873  0478               	iorwf	(___ftneg@f1),w
  6959  0874  1903               	skipnz
  6960  0875  2877               	goto	u3301
  6961  0876  2878               	goto	u3300
  6962  0877                     u3301:
  6963  0877  287B               	goto	l5078
  6964  0878                     u3300:
  6965                           	line	18
  6966                           	
  6967  0878                     l5076:	
  6968  0878  3080               	movlw	080h
  6969  0879  06FA               	xorwf	(___ftneg@f1+2),f
  6970  087A  287B               	goto	l5078
  6971                           	
  6972  087B                     l2441:	
  6973                           	line	19
  6974                           	
  6975  087B                     l5078:	
  6976  087B  287C               	goto	l2442
  6977                           	
  6978  087C                     l5080:	
  6979                           	line	20
  6980                           	
  6981  087C                     l2442:	
  6982  087C  0008               	return
  6983                           	opt stack 0
  6984                           GLOBAL	__end_of___ftneg
  6985  087D                     	__end_of___ftneg:
  6986 ;; =============== function ___ftneg ends ============
  6987                           
  6988                           	signat	___ftneg,4219
  6989                           	global	___fttol
  6990                           psect	text818,local,class=CODE,delta=2
  6991                           global __ptext818
  6992  0E14                     __ptext818:
  6993                           
  6994 ;; *************** function ___fttol *****************
  6995 ;; Defined at:
  6996 ;;		line 45 in file "C:\Program Files\HI-TECH Software\PICC\9.83\sources\fttol.c"
  6997 ;; Parameters:    Size  Location     Type
  6998 ;;  f1              3    0[BANK0 ] float 
  6999 ;; Auto vars:     Size  Location     Type
  7000 ;;  lval            4    9[BANK0 ] unsigned long 
  7001 ;;  exp1            1   13[BANK0 ] unsigned char 
  7002 ;;  sign1           1    8[BANK0 ] unsigned char 
  7003 ;; Return value:  Size  Location     Type
  7004 ;;                  4    0[BANK0 ] long 
  7005 ;; Registers used:
  7006 ;;		wreg, status,2, status,0
  7007 ;; Tracked objects:
  7008 ;;		On entry : 0/0
  7009 ;;		On exit  : 0/0
  7010 ;;		Unchanged: 0/0
  7011 ;; Data sizes:     COMMON   BANK0   BANK1   BANK3   BANK2
  7012 ;;      Params:         0       4       0       0       0
  7013 ;;      Locals:         0       6       0       0       0
  7014 ;;      Temps:          0       4       0       0       0
  7015 ;;      Totals:         0      14       0       0       0
  7016 ;;Total ram usage:       14 bytes
  7017 ;; Hardware stack levels used:    1
  7018 ;; This function calls:
  7019 ;;		Nothing
  7020 ;; This function is called by:
  7021 ;;		_main
  7022 ;;		_PID_MENU
  7023 ;; This function uses a non-reentrant model
  7024 ;;
  7025                           psect	text818
  7026                           	file	"C:\Program Files\HI-TECH Software\PICC\9.83\sources\fttol.c"
  7027                           	line	45
  7028                           	global	__size_of___fttol
  7029  00A6                     	__size_of___fttol	equ	__end_of___fttol-___fttol
  7030                           	
  7031  0E14                     ___fttol:	
  7032                           	opt	stack 7
  7033                           ; Regs used in ___fttol: [wreg+status,2+status,0]
  7034                           	line	49
  7035                           	
  7036  0E14                     l5022:	
  7037  0E14  1283               	bcf	status, 5	;RP0=0, select bank0
  7038  0E15  1303               	bcf	status, 6	;RP1=0, select bank0
  7039  0E16  0820               	movf	(___fttol@f1),w
  7040  0E17  00A4               	movwf	((??___fttol+0)+0)
  7041  0E18  0821               	movf	(___fttol@f1+1),w
  7042  0E19  00A5               	movwf	((??___fttol+0)+0+1)
  7043  0E1A  0822               	movf	(___fttol@f1+2),w
  7044  0E1B  00A6               	movwf	((??___fttol+0)+0+2)
  7045  0E1C  1003               	clrc
  7046  0E1D  0D25               	rlf	(??___fttol+0)+1,w
  7047  0E1E  0D26               	rlf	(??___fttol+0)+2,w
  7048  0E1F  00A7               	movwf	(??___fttol+3)+0
  7049  0E20  0827               	movf	(??___fttol+3)+0,w
  7050  0E21  00AD               	movwf	(___fttol@exp1)
  7051  0E22  08AD               	movf	((___fttol@exp1)),f
  7052  0E23  1D03               	skipz
  7053  0E24  2E26               	goto	u3191
  7054  0E25  2E27               	goto	u3190
  7055  0E26                     u3191:
  7056  0E26  2E31               	goto	l5028
  7057  0E27                     u3190:
  7058                           	line	50
  7059                           	
  7060  0E27                     l5024:	
  7061  0E27  3000               	movlw	0
  7062  0E28  00A3               	movwf	(?___fttol+3)
  7063  0E29  3000               	movlw	0
  7064  0E2A  00A2               	movwf	(?___fttol+2)
  7065  0E2B  3000               	movlw	0
  7066  0E2C  00A1               	movwf	(?___fttol+1)
  7067  0E2D  3000               	movlw	0
  7068  0E2E  00A0               	movwf	(?___fttol)
  7069                           
  7070  0E2F  2EB9               	goto	l2388
  7071                           	
  7072  0E30                     l5026:	
  7073  0E30  2EB9               	goto	l2388
  7074                           	
  7075  0E31                     l2387:	
  7076                           	line	51
  7077                           	
  7078  0E31                     l5028:	
  7079  0E31  0820               	movf	(___fttol@f1),w
  7080  0E32  00A4               	movwf	((??___fttol+0)+0)
  7081  0E33  0821               	movf	(___fttol@f1+1),w
  7082  0E34  00A5               	movwf	((??___fttol+0)+0+1)
  7083  0E35  0822               	movf	(___fttol@f1+2),w
  7084  0E36  00A6               	movwf	((??___fttol+0)+0+2)
  7085  0E37  3017               	movlw	017h
  7086  0E38                     u3205:
  7087  0E38  1003               	clrc
  7088  0E39  0CA6               	rrf	(??___fttol+0)+2,f
  7089  0E3A  0CA5               	rrf	(??___fttol+0)+1,f
  7090  0E3B  0CA4               	rrf	(??___fttol+0)+0,f
  7091  0E3C                     u3200:
  7092  0E3C  3EFF               	addlw	-1
  7093  0E3D  1D03               	skipz
  7094  0E3E  2E38               	goto	u3205
  7095  0E3F  0824               	movf	0+(??___fttol+0)+0,w
  7096  0E40  00A7               	movwf	(??___fttol+3)+0
  7097  0E41  0827               	movf	(??___fttol+3)+0,w
  7098  0E42  00A8               	movwf	(___fttol@sign1)
  7099                           	line	52
  7100                           	
  7101  0E43                     l5030:	
  7102  0E43  17A1               	bsf	(___fttol@f1)+(15/8),(15)&7
  7103                           	line	53
  7104                           	
  7105  0E44                     l5032:	
  7106  0E44  30FF               	movlw	0FFh
  7107  0E45  05A0               	andwf	(___fttol@f1),f
  7108  0E46  30FF               	movlw	0FFh
  7109  0E47  05A1               	andwf	(___fttol@f1+1),f
  7110  0E48  3000               	movlw	0
  7111  0E49  05A2               	andwf	(___fttol@f1+2),f
  7112                           	line	54
  7113                           	
  7114  0E4A                     l5034:	
  7115  0E4A  0820               	movf	(___fttol@f1),w
  7116  0E4B  00A9               	movwf	(___fttol@lval)
  7117  0E4C  0821               	movf	(___fttol@f1+1),w
  7118  0E4D  00AA               	movwf	((___fttol@lval))+1
  7119  0E4E  0822               	movf	(___fttol@f1+2),w
  7120  0E4F  00AB               	movwf	((___fttol@lval))+2
  7121  0E50  01AC               	clrf	((___fttol@lval))+3
  7122                           	line	55
  7123                           	
  7124  0E51                     l5036:	
  7125  0E51  308E               	movlw	low(08Eh)
  7126  0E52  02AD               	subwf	(___fttol@exp1),f
  7127                           	line	56
  7128                           	
  7129  0E53                     l5038:	
  7130  0E53  1FAD               	btfss	(___fttol@exp1),7
  7131  0E54  2E56               	goto	u3211
  7132  0E55  2E57               	goto	u3210
  7133  0E56                     u3211:
  7134  0E56  2E7C               	goto	l5048
  7135  0E57                     u3210:
  7136                           	line	57
  7137                           	
  7138  0E57                     l5040:	
  7139  0E57  082D               	movf	(___fttol@exp1),w
  7140  0E58  3A80               	xorlw	80h
  7141  0E59  3E8F               	addlw	-((-15)^80h)
  7142  0E5A  1803               	skipnc
  7143  0E5B  2E5D               	goto	u3221
  7144  0E5C  2E5E               	goto	u3220
  7145  0E5D                     u3221:
  7146  0E5D  2E69               	goto	l5046
  7147  0E5E                     u3220:
  7148                           	line	58
  7149                           	
  7150  0E5E                     l5042:	
  7151  0E5E  3000               	movlw	0
  7152  0E5F  00A3               	movwf	(?___fttol+3)
  7153  0E60  3000               	movlw	0
  7154  0E61  00A2               	movwf	(?___fttol+2)
  7155  0E62  3000               	movlw	0
  7156  0E63  00A1               	movwf	(?___fttol+1)
  7157  0E64  3000               	movlw	0
  7158  0E65  00A0               	movwf	(?___fttol)
  7159                           
  7160  0E66  2EB9               	goto	l2388
  7161                           	
  7162  0E67                     l5044:	
  7163  0E67  2EB9               	goto	l2388
  7164                           	
  7165  0E68                     l2390:	
  7166  0E68  2E69               	goto	l5046
  7167                           	line	59
  7168                           	
  7169  0E69                     l2391:	
  7170                           	line	60
  7171                           	
  7172  0E69                     l5046:	
  7173  0E69  3001               	movlw	01h
  7174  0E6A                     u3235:
  7175  0E6A  1003               	clrc
  7176  0E6B  0CAC               	rrf	(___fttol@lval+3),f
  7177  0E6C  0CAB               	rrf	(___fttol@lval+2),f
  7178  0E6D  0CAA               	rrf	(___fttol@lval+1),f
  7179  0E6E  0CA9               	rrf	(___fttol@lval),f
  7180  0E6F  3EFF               	addlw	-1
  7181  0E70  1D03               	skipz
  7182  0E71  2E6A               	goto	u3235
  7183                           
  7184                           	line	61
  7185  0E72  3001               	movlw	(01h)
  7186  0E73  00A4               	movwf	(??___fttol+0)+0
  7187  0E74  0824               	movf	(??___fttol+0)+0,w
  7188  0E75  07AD               	addwf	(___fttol@exp1),f
  7189  0E76  1D03               	btfss	status,2
  7190  0E77  2E79               	goto	u3241
  7191  0E78  2E7A               	goto	u3240
  7192  0E79                     u3241:
  7193  0E79  2E69               	goto	l5046
  7194  0E7A                     u3240:
  7195  0E7A  2EA0               	goto	l5058
  7196                           	
  7197  0E7B                     l2392:	
  7198                           	line	62
  7199  0E7B  2EA0               	goto	l5058
  7200                           	
  7201  0E7C                     l2389:	
  7202                           	line	63
  7203                           	
  7204  0E7C                     l5048:	
  7205  0E7C  3018               	movlw	(018h)
  7206  0E7D  022D               	subwf	(___fttol@exp1),w
  7207  0E7E  1C03               	skipc
  7208  0E7F  2E81               	goto	u3251
  7209  0E80  2E82               	goto	u3250
  7210  0E81                     u3251:
  7211  0E81  2E99               	goto	l5056
  7212  0E82                     u3250:
  7213                           	line	64
  7214                           	
  7215  0E82                     l5050:	
  7216  0E82  3000               	movlw	0
  7217  0E83  00A3               	movwf	(?___fttol+3)
  7218  0E84  3000               	movlw	0
  7219  0E85  00A2               	movwf	(?___fttol+2)
  7220  0E86  3000               	movlw	0
  7221  0E87  00A1               	movwf	(?___fttol+1)
  7222  0E88  3000               	movlw	0
  7223  0E89  00A0               	movwf	(?___fttol)
  7224                           
  7225  0E8A  2EB9               	goto	l2388
  7226                           	
  7227  0E8B                     l5052:	
  7228  0E8B  2EB9               	goto	l2388
  7229                           	
  7230  0E8C                     l2394:	
  7231                           	line	65
  7232  0E8C  2E99               	goto	l5056
  7233                           	
  7234  0E8D                     l2396:	
  7235                           	line	66
  7236                           	
  7237  0E8D                     l5054:	
  7238  0E8D  3001               	movlw	01h
  7239  0E8E  00A4               	movwf	(??___fttol+0)+0
  7240  0E8F                     u3265:
  7241  0E8F  1003               	clrc
  7242  0E90  0DA9               	rlf	(___fttol@lval),f
  7243  0E91  0DAA               	rlf	(___fttol@lval+1),f
  7244  0E92  0DAB               	rlf	(___fttol@lval+2),f
  7245  0E93  0DAC               	rlf	(___fttol@lval+3),f
  7246  0E94  0BA4               	decfsz	(??___fttol+0)+0
  7247  0E95  2E8F               	goto	u3265
  7248                           	line	67
  7249  0E96  3001               	movlw	low(01h)
  7250  0E97  02AD               	subwf	(___fttol@exp1),f
  7251  0E98  2E99               	goto	l5056
  7252                           	line	68
  7253                           	
  7254  0E99                     l2395:	
  7255                           	line	65
  7256                           	
  7257  0E99                     l5056:	
  7258  0E99  08AD               	movf	(___fttol@exp1),f
  7259  0E9A  1D03               	skipz
  7260  0E9B  2E9D               	goto	u3271
  7261  0E9C  2E9E               	goto	u3270
  7262  0E9D                     u3271:
  7263  0E9D  2E8D               	goto	l5054
  7264  0E9E                     u3270:
  7265  0E9E  2EA0               	goto	l5058
  7266                           	
  7267  0E9F                     l2397:	
  7268  0E9F  2EA0               	goto	l5058
  7269                           	line	69
  7270                           	
  7271  0EA0                     l2393:	
  7272                           	line	70
  7273                           	
  7274  0EA0                     l5058:	
  7275  0EA0  0828               	movf	(___fttol@sign1),w
  7276  0EA1  1D03               	skipz
  7277  0EA2  2EA4               	goto	u3280
  7278  0EA3  2EB0               	goto	l5062
  7279  0EA4                     u3280:
  7280                           	line	71
  7281                           	
  7282  0EA4                     l5060:	
  7283  0EA4  09A9               	comf	(___fttol@lval),f
  7284  0EA5  09AA               	comf	(___fttol@lval+1),f
  7285  0EA6  09AB               	comf	(___fttol@lval+2),f
  7286  0EA7  09AC               	comf	(___fttol@lval+3),f
  7287  0EA8  0AA9               	incf	(___fttol@lval),f
  7288  0EA9  1903               	skipnz
  7289  0EAA  0AAA               	incf	(___fttol@lval+1),f
  7290  0EAB  1903               	skipnz
  7291  0EAC  0AAB               	incf	(___fttol@lval+2),f
  7292  0EAD  1903               	skipnz
  7293  0EAE  0AAC               	incf	(___fttol@lval+3),f
  7294  0EAF  2EB0               	goto	l5062
  7295                           	
  7296  0EB0                     l2398:	
  7297                           	line	72
  7298                           	
  7299  0EB0                     l5062:	
  7300  0EB0  082C               	movf	(___fttol@lval+3),w
  7301  0EB1  00A3               	movwf	(?___fttol+3)
  7302  0EB2  082B               	movf	(___fttol@lval+2),w
  7303  0EB3  00A2               	movwf	(?___fttol+2)
  7304  0EB4  082A               	movf	(___fttol@lval+1),w
  7305  0EB5  00A1               	movwf	(?___fttol+1)
  7306  0EB6  0829               	movf	(___fttol@lval),w
  7307  0EB7  00A0               	movwf	(?___fttol)
  7308                           
  7309  0EB8  2EB9               	goto	l2388
  7310                           	
  7311  0EB9                     l5064:	
  7312                           	line	73
  7313                           	
  7314  0EB9                     l2388:	
  7315  0EB9  0008               	return
  7316                           	opt stack 0
  7317                           GLOBAL	__end_of___fttol
  7318  0EBA                     	__end_of___fttol:
  7319 ;; =============== function ___fttol ends ============
  7320                           
  7321                           	signat	___fttol,4220
  7322                           	global	___ftpack
  7323                           psect	text819,local,class=CODE,delta=2
  7324                           global __ptext819
  7325  0D0B                     __ptext819:
  7326                           
  7327 ;; *************** function ___ftpack *****************
  7328 ;; Defined at:
  7329 ;;		line 63 in file "C:\Program Files\HI-TECH Software\PICC\9.83\sources\float.c"
  7330 ;; Parameters:    Size  Location     Type
  7331 ;;  arg             3    0[COMMON] unsigned um
  7332 ;;  exp             1    3[COMMON] unsigned char 
  7333 ;;  sign            1    4[COMMON] unsigned char 
  7334 ;; Auto vars:     Size  Location     Type
  7335 ;;		None
  7336 ;; Return value:  Size  Location     Type
  7337 ;;                  3    0[COMMON] float 
  7338 ;; Registers used:
  7339 ;;		wreg, status,2, status,0
  7340 ;; Tracked objects:
  7341 ;;		On entry : 0/0
  7342 ;;		On exit  : 0/0
  7343 ;;		Unchanged: 0/0
  7344 ;; Data sizes:     COMMON   BANK0   BANK1   BANK3   BANK2
  7345 ;;      Params:         5       0       0       0       0
  7346 ;;      Locals:         0       0       0       0       0
  7347 ;;      Temps:          3       0       0       0       0
  7348 ;;      Totals:         8       0       0       0       0
  7349 ;;Total ram usage:        8 bytes
  7350 ;; Hardware stack levels used:    1
  7351 ;; This function calls:
  7352 ;;		Nothing
  7353 ;; This function is called by:
  7354 ;;		___ftadd
  7355 ;;		___ftmul
  7356 ;;		___lbtoft
  7357 ;;		___awtoft
  7358 ;;		___ftdiv
  7359 ;;		___abtoft
  7360 ;;		___lwtoft
  7361 ;;		___altoft
  7362 ;;		___lltoft
  7363 ;;		___attoft
  7364 ;;		___lttoft
  7365 ;; This function uses a non-reentrant model
  7366 ;;
  7367                           psect	text819
  7368                           	file	"C:\Program Files\HI-TECH Software\PICC\9.83\sources\float.c"
  7369                           	line	63
  7370                           	global	__size_of___ftpack
  7371  007B                     	__size_of___ftpack	equ	__end_of___ftpack-___ftpack
  7372                           	
  7373  0D0B                     ___ftpack:	
  7374                           	opt	stack 6
  7375                           ; Regs used in ___ftpack: [wreg+status,2+status,0]
  7376                           	line	64
  7377                           	
  7378  0D0B                     l4954:	
  7379  0D0B  0873               	movf	(___ftpack@exp),w
  7380  0D0C  1D03               	skipz
  7381  0D0D  2D0F               	goto	u3000
  7382  0D0E  2D17               	goto	l4958
  7383  0D0F                     u3000:
  7384                           	
  7385  0D0F                     l4956:	
  7386  0D0F  0872               	movf	(___ftpack@arg+2),w
  7387  0D10  0471               	iorwf	(___ftpack@arg+1),w
  7388  0D11  0470               	iorwf	(___ftpack@arg),w
  7389  0D12  1D03               	skipz
  7390  0D13  2D15               	goto	u3011
  7391  0D14  2D16               	goto	u3010
  7392  0D15                     u3011:
  7393  0D15  2D2D               	goto	l4964
  7394  0D16                     u3010:
  7395  0D16  2D17               	goto	l4958
  7396                           	
  7397  0D17                     l2612:	
  7398                           	line	65
  7399                           	
  7400  0D17                     l4958:	
  7401  0D17  3000               	movlw	0x0
  7402  0D18  00F0               	movwf	(?___ftpack)
  7403  0D19  3000               	movlw	0x0
  7404  0D1A  00F1               	movwf	(?___ftpack+1)
  7405  0D1B  3000               	movlw	0x0
  7406  0D1C  00F2               	movwf	(?___ftpack+2)
  7407  0D1D  2D85               	goto	l2613
  7408                           	
  7409  0D1E                     l4960:	
  7410  0D1E  2D85               	goto	l2613
  7411                           	
  7412  0D1F                     l2610:	
  7413                           	line	66
  7414  0D1F  2D2D               	goto	l4964
  7415                           	
  7416  0D20                     l2615:	
  7417                           	line	67
  7418                           	
  7419  0D20                     l4962:	
  7420  0D20  3001               	movlw	(01h)
  7421  0D21  00F5               	movwf	(??___ftpack+0)+0
  7422  0D22  0875               	movf	(??___ftpack+0)+0,w
  7423  0D23  07F3               	addwf	(___ftpack@exp),f
  7424                           	line	68
  7425  0D24  3001               	movlw	01h
  7426  0D25                     u3025:
  7427  0D25  1003               	clrc
  7428  0D26  0CF2               	rrf	(___ftpack@arg+2),f
  7429  0D27  0CF1               	rrf	(___ftpack@arg+1),f
  7430  0D28  0CF0               	rrf	(___ftpack@arg),f
  7431  0D29  3EFF               	addlw	-1
  7432  0D2A  1D03               	skipz
  7433  0D2B  2D25               	goto	u3025
  7434                           
  7435  0D2C  2D2D               	goto	l4964
  7436                           	line	69
  7437                           	
  7438  0D2D                     l2614:	
  7439                           	line	66
  7440                           	
  7441  0D2D                     l4964:	
  7442  0D2D  30FE               	movlw	low highword(0FE0000h)
  7443  0D2E  0572               	andwf	(___ftpack@arg+2),w
  7444  0D2F  1D03               	btfss	status,2
  7445  0D30  2D32               	goto	u3031
  7446  0D31  2D33               	goto	u3030
  7447  0D32                     u3031:
  7448  0D32  2D20               	goto	l4962
  7449  0D33                     u3030:
  7450  0D33  2D4B               	goto	l2617
  7451                           	
  7452  0D34                     l2616:	
  7453                           	line	70
  7454  0D34  2D4B               	goto	l2617
  7455                           	
  7456  0D35                     l2618:	
  7457                           	line	71
  7458                           	
  7459  0D35                     l4966:	
  7460  0D35  3001               	movlw	(01h)
  7461  0D36  00F5               	movwf	(??___ftpack+0)+0
  7462  0D37  0875               	movf	(??___ftpack+0)+0,w
  7463  0D38  07F3               	addwf	(___ftpack@exp),f
  7464                           	line	72
  7465                           	
  7466  0D39                     l4968:	
  7467  0D39  3001               	movlw	01h
  7468  0D3A  07F0               	addwf	(___ftpack@arg),f
  7469  0D3B  3000               	movlw	0
  7470  0D3C  1803               	skipnc
  7471  0D3D  3001               movlw 1
  7472  0D3E  07F1               	addwf	(___ftpack@arg+1),f
  7473  0D3F  3000               	movlw	0
  7474  0D40  1803               	skipnc
  7475  0D41  3001               movlw 1
  7476  0D42  07F2               	addwf	(___ftpack@arg+2),f
  7477                           	line	73
  7478                           	
  7479  0D43                     l4970:	
  7480  0D43  3001               	movlw	01h
  7481  0D44                     u3045:
  7482  0D44  1003               	clrc
  7483  0D45  0CF2               	rrf	(___ftpack@arg+2),f
  7484  0D46  0CF1               	rrf	(___ftpack@arg+1),f
  7485  0D47  0CF0               	rrf	(___ftpack@arg),f
  7486  0D48  3EFF               	addlw	-1
  7487  0D49  1D03               	skipz
  7488  0D4A  2D44               	goto	u3045
  7489                           
  7490                           	line	74
  7491                           	
  7492  0D4B                     l2617:	
  7493                           	line	70
  7494  0D4B  30FF               	movlw	low highword(0FF0000h)
  7495  0D4C  0572               	andwf	(___ftpack@arg+2),w
  7496  0D4D  1D03               	btfss	status,2
  7497  0D4E  2D50               	goto	u3051
  7498  0D4F  2D51               	goto	u3050
  7499  0D50                     u3051:
  7500  0D50  2D35               	goto	l4966
  7501  0D51                     u3050:
  7502  0D51  2D5E               	goto	l4974
  7503                           	
  7504  0D52                     l2619:	
  7505                           	line	75
  7506  0D52  2D5E               	goto	l4974
  7507                           	
  7508  0D53                     l2621:	
  7509                           	line	76
  7510                           	
  7511  0D53                     l4972:	
  7512  0D53  3001               	movlw	low(01h)
  7513  0D54  02F3               	subwf	(___ftpack@exp),f
  7514                           	line	77
  7515  0D55  3001               	movlw	01h
  7516  0D56                     u3065:
  7517  0D56  1003               	clrc
  7518  0D57  0DF0               	rlf	(___ftpack@arg),f
  7519  0D58  0DF1               	rlf	(___ftpack@arg+1),f
  7520  0D59  0DF2               	rlf	(___ftpack@arg+2),f
  7521  0D5A  3EFF               	addlw	-1
  7522  0D5B  1D03               	skipz
  7523  0D5C  2D56               	goto	u3065
  7524  0D5D  2D5E               	goto	l4974
  7525                           	line	78
  7526                           	
  7527  0D5E                     l2620:	
  7528                           	line	75
  7529                           	
  7530  0D5E                     l4974:	
  7531  0D5E  1FF1               	btfss	(___ftpack@arg+1),(15)&7
  7532  0D5F  2D61               	goto	u3071
  7533  0D60  2D62               	goto	u3070
  7534  0D61                     u3071:
  7535  0D61  2D53               	goto	l4972
  7536  0D62                     u3070:
  7537                           	
  7538  0D62                     l2622:	
  7539                           	line	79
  7540  0D62  1873               	btfsc	(___ftpack@exp),(0)&7
  7541  0D63  2D65               	goto	u3081
  7542  0D64  2D66               	goto	u3080
  7543  0D65                     u3081:
  7544  0D65  2D6C               	goto	l2623
  7545  0D66                     u3080:
  7546                           	line	80
  7547                           	
  7548  0D66                     l4976:	
  7549  0D66  30FF               	movlw	0FFh
  7550  0D67  05F0               	andwf	(___ftpack@arg),f
  7551  0D68  307F               	movlw	07Fh
  7552  0D69  05F1               	andwf	(___ftpack@arg+1),f
  7553  0D6A  30FF               	movlw	0FFh
  7554  0D6B  05F2               	andwf	(___ftpack@arg+2),f
  7555                           	
  7556  0D6C                     l2623:	
  7557                           	line	81
  7558  0D6C  1003               	clrc
  7559  0D6D  0CF3               	rrf	(___ftpack@exp),f
  7560                           
  7561                           	line	82
  7562                           	
  7563  0D6E                     l4978:	
  7564  0D6E  0873               	movf	(___ftpack@exp),w
  7565  0D6F  00F5               	movwf	((??___ftpack+0)+0)
  7566  0D70  01F6               	clrf	((??___ftpack+0)+0+1)
  7567  0D71  01F7               	clrf	((??___ftpack+0)+0+2)
  7568  0D72  3010               	movlw	010h
  7569  0D73                     u3095:
  7570  0D73  1003               	clrc
  7571  0D74  0DF5               	rlf	(??___ftpack+0)+0,f
  7572  0D75  0DF6               	rlf	(??___ftpack+0)+1,f
  7573  0D76  0DF7               	rlf	(??___ftpack+0)+2,f
  7574  0D77                     u3090:
  7575  0D77  3EFF               	addlw	-1
  7576  0D78  1D03               	skipz
  7577  0D79  2D73               	goto	u3095
  7578  0D7A  0875               	movf	0+(??___ftpack+0)+0,w
  7579  0D7B  04F0               	iorwf	(___ftpack@arg),f
  7580  0D7C  0876               	movf	1+(??___ftpack+0)+0,w
  7581  0D7D  04F1               	iorwf	(___ftpack@arg+1),f
  7582  0D7E  0877               	movf	2+(??___ftpack+0)+0,w
  7583  0D7F  04F2               	iorwf	(___ftpack@arg+2),f
  7584                           	line	83
  7585                           	
  7586  0D80                     l4980:	
  7587  0D80  0874               	movf	(___ftpack@sign),w
  7588  0D81  1D03               	skipz
  7589  0D82  2D84               	goto	u3100
  7590  0D83  2D85               	goto	l2624
  7591  0D84                     u3100:
  7592                           	line	84
  7593                           	
  7594  0D84                     l4982:	
  7595  0D84  17F2               	bsf	(___ftpack@arg)+(23/8),(23)&7
  7596                           	
  7597  0D85                     l2624:	
  7598                           	line	85
  7599                           	line	86
  7600                           	
  7601  0D85                     l2613:	
  7602  0D85  0008               	return
  7603                           	opt stack 0
  7604                           GLOBAL	__end_of___ftpack
  7605  0D86                     	__end_of___ftpack:
  7606 ;; =============== function ___ftpack ends ============
  7607                           
  7608                           	signat	___ftpack,12411
  7609                           	global	___lwmod
  7610                           psect	text820,local,class=CODE,delta=2
  7611                           global __ptext820
  7612  0B33                     __ptext820:
  7613                           
  7614 ;; *************** function ___lwmod *****************
  7615 ;; Defined at:
  7616 ;;		line 5 in file "C:\Program Files\HI-TECH Software\PICC\9.83\sources\lwmod.c"
  7617 ;; Parameters:    Size  Location     Type
  7618 ;;  divisor         2    0[COMMON] unsigned int 
  7619 ;;  dividend        2    2[COMMON] unsigned int 
  7620 ;; Auto vars:     Size  Location     Type
  7621 ;;  counter         1    5[COMMON] unsigned char 
  7622 ;; Return value:  Size  Location     Type
  7623 ;;                  2    0[COMMON] unsigned int 
  7624 ;; Registers used:
  7625 ;;		wreg, status,2, status,0
  7626 ;; Tracked objects:
  7627 ;;		On entry : 0/0
  7628 ;;		On exit  : 0/0
  7629 ;;		Unchanged: 0/0
  7630 ;; Data sizes:     COMMON   BANK0   BANK1   BANK3   BANK2
  7631 ;;      Params:         4       0       0       0       0
  7632 ;;      Locals:         1       0       0       0       0
  7633 ;;      Temps:          1       0       0       0       0
  7634 ;;      Totals:         6       0       0       0       0
  7635 ;;Total ram usage:        6 bytes
  7636 ;; Hardware stack levels used:    1
  7637 ;; This function calls:
  7638 ;;		Nothing
  7639 ;; This function is called by:
  7640 ;;		_lcd_num
  7641 ;; This function uses a non-reentrant model
  7642 ;;
  7643                           psect	text820
  7644                           	file	"C:\Program Files\HI-TECH Software\PICC\9.83\sources\lwmod.c"
  7645                           	line	5
  7646                           	global	__size_of___lwmod
  7647  0044                     	__size_of___lwmod	equ	__end_of___lwmod-___lwmod
  7648                           	
  7649  0B33                     ___lwmod:	
  7650                           	opt	stack 5
  7651                           ; Regs used in ___lwmod: [wreg+status,2+status,0]
  7652                           	line	8
  7653                           	
  7654  0B33                     l4932:	
  7655  0B33  0871               	movf	(___lwmod@divisor+1),w
  7656  0B34  0470               	iorwf	(___lwmod@divisor),w
  7657  0B35  1903               	skipnz
  7658  0B36  2B38               	goto	u2941
  7659  0B37  2B39               	goto	u2940
  7660  0B38                     u2941:
  7661  0B38  2B6F               	goto	l4950
  7662  0B39                     u2940:
  7663                           	line	9
  7664                           	
  7665  0B39                     l4934:	
  7666  0B39  01F5               	clrf	(___lwmod@counter)
  7667  0B3A  1403               	bsf	status,0
  7668  0B3B  0DF5               	rlf	(___lwmod@counter),f
  7669                           	line	10
  7670  0B3C  2B49               	goto	l4940
  7671                           	
  7672  0B3D                     l2296:	
  7673                           	line	11
  7674                           	
  7675  0B3D                     l4936:	
  7676  0B3D  3001               	movlw	01h
  7677                           	
  7678  0B3E                     u2955:
  7679  0B3E  1003               	clrc
  7680  0B3F  0DF0               	rlf	(___lwmod@divisor),f
  7681  0B40  0DF1               	rlf	(___lwmod@divisor+1),f
  7682  0B41  3EFF               	addlw	-1
  7683  0B42  1D03               	skipz
  7684  0B43  2B3E               	goto	u2955
  7685                           	line	12
  7686                           	
  7687  0B44                     l4938:	
  7688  0B44  3001               	movlw	(01h)
  7689  0B45  00F4               	movwf	(??___lwmod+0)+0
  7690  0B46  0874               	movf	(??___lwmod+0)+0,w
  7691  0B47  07F5               	addwf	(___lwmod@counter),f
  7692  0B48  2B49               	goto	l4940
  7693                           	line	13
  7694                           	
  7695  0B49                     l2295:	
  7696                           	line	10
  7697                           	
  7698  0B49                     l4940:	
  7699  0B49  1FF1               	btfss	(___lwmod@divisor+1),(15)&7
  7700  0B4A  2B4C               	goto	u2961
  7701  0B4B  2B4D               	goto	u2960
  7702  0B4C                     u2961:
  7703  0B4C  2B3D               	goto	l4936
  7704  0B4D                     u2960:
  7705  0B4D  2B4F               	goto	l4942
  7706                           	
  7707  0B4E                     l2297:	
  7708  0B4E  2B4F               	goto	l4942
  7709                           	line	14
  7710                           	
  7711  0B4F                     l2298:	
  7712                           	line	15
  7713                           	
  7714  0B4F                     l4942:	
  7715  0B4F  0871               	movf	(___lwmod@divisor+1),w
  7716  0B50  0273               	subwf	(___lwmod@dividend+1),w
  7717  0B51  1D03               	skipz
  7718  0B52  2B55               	goto	u2975
  7719  0B53  0870               	movf	(___lwmod@divisor),w
  7720  0B54  0272               	subwf	(___lwmod@dividend),w
  7721  0B55                     u2975:
  7722  0B55  1C03               	skipc
  7723  0B56  2B58               	goto	u2971
  7724  0B57  2B59               	goto	u2970
  7725  0B58                     u2971:
  7726  0B58  2B60               	goto	l4946
  7727  0B59                     u2970:
  7728                           	line	16
  7729                           	
  7730  0B59                     l4944:	
  7731  0B59  0870               	movf	(___lwmod@divisor),w
  7732  0B5A  02F2               	subwf	(___lwmod@dividend),f
  7733  0B5B  0871               	movf	(___lwmod@divisor+1),w
  7734  0B5C  1C03               	skipc
  7735  0B5D  03F3               	decf	(___lwmod@dividend+1),f
  7736  0B5E  02F3               	subwf	(___lwmod@dividend+1),f
  7737  0B5F  2B60               	goto	l4946
  7738                           	
  7739  0B60                     l2299:	
  7740                           	line	17
  7741                           	
  7742  0B60                     l4946:	
  7743  0B60  3001               	movlw	01h
  7744                           	
  7745  0B61                     u2985:
  7746  0B61  1003               	clrc
  7747  0B62  0CF1               	rrf	(___lwmod@divisor+1),f
  7748  0B63  0CF0               	rrf	(___lwmod@divisor),f
  7749  0B64  3EFF               	addlw	-1
  7750  0B65  1D03               	skipz
  7751  0B66  2B61               	goto	u2985
  7752                           	line	18
  7753                           	
  7754  0B67                     l4948:	
  7755  0B67  3001               	movlw	low(01h)
  7756  0B68  02F5               	subwf	(___lwmod@counter),f
  7757  0B69  1D03               	btfss	status,2
  7758  0B6A  2B6C               	goto	u2991
  7759  0B6B  2B6D               	goto	u2990
  7760  0B6C                     u2991:
  7761  0B6C  2B4F               	goto	l4942
  7762  0B6D                     u2990:
  7763  0B6D  2B6F               	goto	l4950
  7764                           	
  7765  0B6E                     l2300:	
  7766  0B6E  2B6F               	goto	l4950
  7767                           	line	19
  7768                           	
  7769  0B6F                     l2294:	
  7770                           	line	20
  7771                           	
  7772  0B6F                     l4950:	
  7773  0B6F  0873               	movf	(___lwmod@dividend+1),w
  7774  0B70  01F1               	clrf	(?___lwmod+1)
  7775  0B71  07F1               	addwf	(?___lwmod+1)
  7776  0B72  0872               	movf	(___lwmod@dividend),w
  7777  0B73  01F0               	clrf	(?___lwmod)
  7778  0B74  07F0               	addwf	(?___lwmod)
  7779                           
  7780  0B75  2B76               	goto	l2301
  7781                           	
  7782  0B76                     l4952:	
  7783                           	line	21
  7784                           	
  7785  0B76                     l2301:	
  7786  0B76  0008               	return
  7787                           	opt stack 0
  7788                           GLOBAL	__end_of___lwmod
  7789  0B77                     	__end_of___lwmod:
  7790 ;; =============== function ___lwmod ends ============
  7791                           
  7792                           	signat	___lwmod,8314
  7793                           	global	___lwdiv
  7794                           psect	text821,local,class=CODE,delta=2
  7795                           global __ptext821
  7796  0B77                     __ptext821:
  7797                           
  7798 ;; *************** function ___lwdiv *****************
  7799 ;; Defined at:
  7800 ;;		line 5 in file "C:\Program Files\HI-TECH Software\PICC\9.83\sources\lwdiv.c"
  7801 ;; Parameters:    Size  Location     Type
  7802 ;;  divisor         2    0[COMMON] unsigned int 
  7803 ;;  dividend        2    2[COMMON] unsigned int 
  7804 ;; Auto vars:     Size  Location     Type
  7805 ;;  quotient        2    5[COMMON] unsigned int 
  7806 ;;  counter         1    7[COMMON] unsigned char 
  7807 ;; Return value:  Size  Location     Type
  7808 ;;                  2    0[COMMON] unsigned int 
  7809 ;; Registers used:
  7810 ;;		wreg, status,2, status,0
  7811 ;; Tracked objects:
  7812 ;;		On entry : 0/0
  7813 ;;		On exit  : 0/0
  7814 ;;		Unchanged: 0/0
  7815 ;; Data sizes:     COMMON   BANK0   BANK1   BANK3   BANK2
  7816 ;;      Params:         4       0       0       0       0
  7817 ;;      Locals:         3       0       0       0       0
  7818 ;;      Temps:          1       0       0       0       0
  7819 ;;      Totals:         8       0       0       0       0
  7820 ;;Total ram usage:        8 bytes
  7821 ;; Hardware stack levels used:    1
  7822 ;; This function calls:
  7823 ;;		Nothing
  7824 ;; This function is called by:
  7825 ;;		_lcd_num
  7826 ;; This function uses a non-reentrant model
  7827 ;;
  7828                           psect	text821
  7829                           	file	"C:\Program Files\HI-TECH Software\PICC\9.83\sources\lwdiv.c"
  7830                           	line	5
  7831                           	global	__size_of___lwdiv
  7832  004E                     	__size_of___lwdiv	equ	__end_of___lwdiv-___lwdiv
  7833                           	
  7834  0B77                     ___lwdiv:	
  7835                           	opt	stack 5
  7836                           ; Regs used in ___lwdiv: [wreg+status,2+status,0]
  7837                           	line	9
  7838                           	
  7839  0B77                     l4906:	
  7840  0B77  01F5               	clrf	(___lwdiv@quotient)
  7841  0B78  01F6               	clrf	(___lwdiv@quotient+1)
  7842                           	line	10
  7843                           	
  7844  0B79                     l4908:	
  7845  0B79  0871               	movf	(___lwdiv@divisor+1),w
  7846  0B7A  0470               	iorwf	(___lwdiv@divisor),w
  7847  0B7B  1903               	skipnz
  7848  0B7C  2B7E               	goto	u2871
  7849  0B7D  2B7F               	goto	u2870
  7850  0B7E                     u2871:
  7851  0B7E  2BBD               	goto	l4928
  7852  0B7F                     u2870:
  7853                           	line	11
  7854                           	
  7855  0B7F                     l4910:	
  7856  0B7F  01F7               	clrf	(___lwdiv@counter)
  7857  0B80  1403               	bsf	status,0
  7858  0B81  0DF7               	rlf	(___lwdiv@counter),f
  7859                           	line	12
  7860  0B82  2B8F               	goto	l4916
  7861                           	
  7862  0B83                     l2286:	
  7863                           	line	13
  7864                           	
  7865  0B83                     l4912:	
  7866  0B83  3001               	movlw	01h
  7867                           	
  7868  0B84                     u2885:
  7869  0B84  1003               	clrc
  7870  0B85  0DF0               	rlf	(___lwdiv@divisor),f
  7871  0B86  0DF1               	rlf	(___lwdiv@divisor+1),f
  7872  0B87  3EFF               	addlw	-1
  7873  0B88  1D03               	skipz
  7874  0B89  2B84               	goto	u2885
  7875                           	line	14
  7876                           	
  7877  0B8A                     l4914:	
  7878  0B8A  3001               	movlw	(01h)
  7879  0B8B  00F4               	movwf	(??___lwdiv+0)+0
  7880  0B8C  0874               	movf	(??___lwdiv+0)+0,w
  7881  0B8D  07F7               	addwf	(___lwdiv@counter),f
  7882  0B8E  2B8F               	goto	l4916
  7883                           	line	15
  7884                           	
  7885  0B8F                     l2285:	
  7886                           	line	12
  7887                           	
  7888  0B8F                     l4916:	
  7889  0B8F  1FF1               	btfss	(___lwdiv@divisor+1),(15)&7
  7890  0B90  2B92               	goto	u2891
  7891  0B91  2B93               	goto	u2890
  7892  0B92                     u2891:
  7893  0B92  2B83               	goto	l4912
  7894  0B93                     u2890:
  7895  0B93  2B95               	goto	l4918
  7896                           	
  7897  0B94                     l2287:	
  7898  0B94  2B95               	goto	l4918
  7899                           	line	16
  7900                           	
  7901  0B95                     l2288:	
  7902                           	line	17
  7903                           	
  7904  0B95                     l4918:	
  7905  0B95  3001               	movlw	01h
  7906                           	
  7907  0B96                     u2905:
  7908  0B96  1003               	clrc
  7909  0B97  0DF5               	rlf	(___lwdiv@quotient),f
  7910  0B98  0DF6               	rlf	(___lwdiv@quotient+1),f
  7911  0B99  3EFF               	addlw	-1
  7912  0B9A  1D03               	skipz
  7913  0B9B  2B96               	goto	u2905
  7914                           	line	18
  7915  0B9C  0871               	movf	(___lwdiv@divisor+1),w
  7916  0B9D  0273               	subwf	(___lwdiv@dividend+1),w
  7917  0B9E  1D03               	skipz
  7918  0B9F  2BA2               	goto	u2915
  7919  0BA0  0870               	movf	(___lwdiv@divisor),w
  7920  0BA1  0272               	subwf	(___lwdiv@dividend),w
  7921  0BA2                     u2915:
  7922  0BA2  1C03               	skipc
  7923  0BA3  2BA5               	goto	u2911
  7924  0BA4  2BA6               	goto	u2910
  7925  0BA5                     u2911:
  7926  0BA5  2BAE               	goto	l4924
  7927  0BA6                     u2910:
  7928                           	line	19
  7929                           	
  7930  0BA6                     l4920:	
  7931  0BA6  0870               	movf	(___lwdiv@divisor),w
  7932  0BA7  02F2               	subwf	(___lwdiv@dividend),f
  7933  0BA8  0871               	movf	(___lwdiv@divisor+1),w
  7934  0BA9  1C03               	skipc
  7935  0BAA  03F3               	decf	(___lwdiv@dividend+1),f
  7936  0BAB  02F3               	subwf	(___lwdiv@dividend+1),f
  7937                           	line	20
  7938                           	
  7939  0BAC                     l4922:	
  7940  0BAC  1475               	bsf	(___lwdiv@quotient)+(0/8),(0)&7
  7941  0BAD  2BAE               	goto	l4924
  7942                           	line	21
  7943                           	
  7944  0BAE                     l2289:	
  7945                           	line	22
  7946                           	
  7947  0BAE                     l4924:	
  7948  0BAE  3001               	movlw	01h
  7949                           	
  7950  0BAF                     u2925:
  7951  0BAF  1003               	clrc
  7952  0BB0  0CF1               	rrf	(___lwdiv@divisor+1),f
  7953  0BB1  0CF0               	rrf	(___lwdiv@divisor),f
  7954  0BB2  3EFF               	addlw	-1
  7955  0BB3  1D03               	skipz
  7956  0BB4  2BAF               	goto	u2925
  7957                           	line	23
  7958                           	
  7959  0BB5                     l4926:	
  7960  0BB5  3001               	movlw	low(01h)
  7961  0BB6  02F7               	subwf	(___lwdiv@counter),f
  7962  0BB7  1D03               	btfss	status,2
  7963  0BB8  2BBA               	goto	u2931
  7964  0BB9  2BBB               	goto	u2930
  7965  0BBA                     u2931:
  7966  0BBA  2B95               	goto	l4918
  7967  0BBB                     u2930:
  7968  0BBB  2BBD               	goto	l4928
  7969                           	
  7970  0BBC                     l2290:	
  7971  0BBC  2BBD               	goto	l4928
  7972                           	line	24
  7973                           	
  7974  0BBD                     l2284:	
  7975                           	line	25
  7976                           	
  7977  0BBD                     l4928:	
  7978  0BBD  0876               	movf	(___lwdiv@quotient+1),w
  7979  0BBE  01F1               	clrf	(?___lwdiv+1)
  7980  0BBF  07F1               	addwf	(?___lwdiv+1)
  7981  0BC0  0875               	movf	(___lwdiv@quotient),w
  7982  0BC1  01F0               	clrf	(?___lwdiv)
  7983  0BC2  07F0               	addwf	(?___lwdiv)
  7984                           
  7985  0BC3  2BC4               	goto	l2291
  7986                           	
  7987  0BC4                     l4930:	
  7988                           	line	26
  7989                           	
  7990  0BC4                     l2291:	
  7991  0BC4  0008               	return
  7992                           	opt stack 0
  7993                           GLOBAL	__end_of___lwdiv
  7994  0BC5                     	__end_of___lwdiv:
  7995 ;; =============== function ___lwdiv ends ============
  7996                           
  7997                           	signat	___lwdiv,8314
  7998                           	global	_delay
  7999                           psect	text822,local,class=CODE,delta=2
  8000                           global __ptext822
  8001  0AD2                     __ptext822:
  8002                           
  8003 ;; *************** function _delay *****************
  8004 ;; Defined at:
  8005 ;;		line 351 in file "Main.c"
  8006 ;; Parameters:    Size  Location     Type
  8007 ;;  data            4    0[COMMON] unsigned long 
  8008 ;; Auto vars:     Size  Location     Type
  8009 ;;		None
  8010 ;; Return value:  Size  Location     Type
  8011 ;;		None               void
  8012 ;; Registers used:
  8013 ;;		wreg
  8014 ;; Tracked objects:
  8015 ;;		On entry : 0/0
  8016 ;;		On exit  : 0/0
  8017 ;;		Unchanged: 0/0
  8018 ;; Data sizes:     COMMON   BANK0   BANK1   BANK3   BANK2
  8019 ;;      Params:         4       0       0       0       0
  8020 ;;      Locals:         0       0       0       0       0
  8021 ;;      Temps:          4       0       0       0       0
  8022 ;;      Totals:         8       0       0       0       0
  8023 ;;Total ram usage:        8 bytes
  8024 ;; Hardware stack levels used:    1
  8025 ;; This function calls:
  8026 ;;		Nothing
  8027 ;; This function is called by:
  8028 ;;		_send_config
  8029 ;;		_send_char
  8030 ;;		_lcd_clr
  8031 ;; This function uses a non-reentrant model
  8032 ;;
  8033                           psect	text822
  8034                           	file	"Main.c"
  8035                           	line	351
  8036                           	global	__size_of_delay
  8037  0030                     	__size_of_delay	equ	__end_of_delay-_delay
  8038                           	
  8039  0AD2                     _delay:	
  8040                           	opt	stack 5
  8041                           ; Regs used in _delay: [wreg]
  8042                           	line	352
  8043                           	
  8044  0AD2                     l4900:	
  8045                           ;Main.c: 352: for( ;data>0;data--);
  8046  0AD2  0873               	movf	(delay@data+3),w
  8047  0AD3  0472               	iorwf	(delay@data+2),w
  8048  0AD4  0471               	iorwf	(delay@data+1),w
  8049  0AD5  0470               	iorwf	(delay@data),w
  8050  0AD6  1D03               	skipz
  8051  0AD7  2AD9               	goto	u2841
  8052  0AD8  2ADA               	goto	u2840
  8053  0AD9                     u2841:
  8054  0AD9  2ADC               	goto	l4904
  8055  0ADA                     u2840:
  8056  0ADA  2B01               	goto	l1229
  8057                           	
  8058  0ADB                     l4902:	
  8059  0ADB  2B01               	goto	l1229
  8060                           	
  8061  0ADC                     l1227:	
  8062                           	
  8063  0ADC                     l4904:	
  8064  0ADC  3001               	movlw	01h
  8065  0ADD  00F4               	movwf	((??_delay+0)+0)
  8066  0ADE  3000               	movlw	0
  8067  0ADF  00F5               	movwf	((??_delay+0)+0+1)
  8068  0AE0  3000               	movlw	0
  8069  0AE1  00F6               	movwf	((??_delay+0)+0+2)
  8070  0AE2  3000               	movlw	0
  8071  0AE3  00F7               	movwf	((??_delay+0)+0+3)
  8072  0AE4  0874               	movf	0+(??_delay+0)+0,w
  8073  0AE5  02F0               	subwf	(delay@data),f
  8074  0AE6  0875               	movf	1+(??_delay+0)+0,w
  8075  0AE7  1C03               	skipc
  8076  0AE8  0F75               	incfsz	1+(??_delay+0)+0,w
  8077  0AE9  2AEB               	goto	u2855
  8078  0AEA  2AEC               	goto	u2856
  8079  0AEB                     u2855:
  8080  0AEB  02F1               	subwf	(delay@data+1),f
  8081  0AEC                     u2856:
  8082  0AEC  0876               	movf	2+(??_delay+0)+0,w
  8083  0AED  1C03               	skipc
  8084  0AEE  0F76               	incfsz	2+(??_delay+0)+0,w
  8085  0AEF  2AF1               	goto	u2857
  8086  0AF0  2AF2               	goto	u2858
  8087  0AF1                     u2857:
  8088  0AF1  02F2               	subwf	(delay@data+2),f
  8089  0AF2                     u2858:
  8090  0AF2  0877               	movf	3+(??_delay+0)+0,w
  8091  0AF3  1C03               	skipc
  8092  0AF4  0F77               	incfsz	3+(??_delay+0)+0,w
  8093  0AF5  2AF7               	goto	u2859
  8094  0AF6  2AF8               	goto	u2850
  8095  0AF7                     u2859:
  8096  0AF7  02F3               	subwf	(delay@data+3),f
  8097  0AF8                     u2850:
  8098                           
  8099  0AF8  0873               	movf	(delay@data+3),w
  8100  0AF9  0472               	iorwf	(delay@data+2),w
  8101  0AFA  0471               	iorwf	(delay@data+1),w
  8102  0AFB  0470               	iorwf	(delay@data),w
  8103  0AFC  1D03               	skipz
  8104  0AFD  2AFF               	goto	u2861
  8105  0AFE  2B00               	goto	u2860
  8106  0AFF                     u2861:
  8107  0AFF  2ADC               	goto	l4904
  8108  0B00                     u2860:
  8109  0B00  2B01               	goto	l1229
  8110                           	
  8111  0B01                     l1228:	
  8112                           	line	353
  8113                           	
  8114  0B01                     l1229:	
  8115  0B01  0008               	return
  8116                           	opt stack 0
  8117                           GLOBAL	__end_of_delay
  8118  0B02                     	__end_of_delay:
  8119 ;; =============== function _delay ends ============
  8120                           
  8121                           	signat	_delay,4216
  8122                           	global	_set_pwml
  8123                           psect	text823,local,class=CODE,delta=2
  8124                           global __ptext823
  8125  0004                     __ptext823:
  8126                           
  8127 ;; *************** function _set_pwml *****************
  8128 ;; Defined at:
  8129 ;;		line 319 in file "Main.c"
  8130 ;; Parameters:    Size  Location     Type
  8131 ;;  uc_duty_cycl    1    wreg     unsigned char 
  8132 ;; Auto vars:     Size  Location     Type
  8133 ;;  uc_duty_cycl    1    0[COMMON] unsigned char 
  8134 ;; Return value:  Size  Location     Type
  8135 ;;		None               void
  8136 ;; Registers used:
  8137 ;;		wreg
  8138 ;; Tracked objects:
  8139 ;;		On entry : 0/0
  8140 ;;		On exit  : 0/0
  8141 ;;		Unchanged: 0/0
  8142 ;; Data sizes:     COMMON   BANK0   BANK1   BANK3   BANK2
  8143 ;;      Params:         0       0       0       0       0
  8144 ;;      Locals:         1       0       0       0       0
  8145 ;;      Temps:          0       0       0       0       0
  8146 ;;      Totals:         1       0       0       0       0
  8147 ;;Total ram usage:        1 bytes
  8148 ;; Hardware stack levels used:    1
  8149 ;; This function calls:
  8150 ;;		Nothing
  8151 ;; This function is called by:
  8152 ;;		_motorspeed
  8153 ;; This function uses a non-reentrant model
  8154 ;;
  8155                           psect	text823
  8156                           	file	"Main.c"
  8157                           	line	319
  8158                           	global	__size_of_set_pwml
  8159  0006                     	__size_of_set_pwml	equ	__end_of_set_pwml-_set_pwml
  8160                           	
  8161  0004                     _set_pwml:	
  8162                           	opt	stack 6
  8163                           ; Regs used in _set_pwml: [wreg]
  8164                           ;set_pwml@uc_duty_cycle stored from wreg
  8165  0004  00F0               	movwf	(set_pwml@uc_duty_cycle)
  8166                           	line	320
  8167                           	
  8168  0005                     l4898:	
  8169                           ;Main.c: 320: CCPR2L = uc_duty_cycle;
  8170  0005  0870               	movf	(set_pwml@uc_duty_cycle),w
  8171  0006  1283               	bcf	status, 5	;RP0=0, select bank0
  8172  0007  1303               	bcf	status, 6	;RP1=0, select bank0
  8173  0008  009B               	movwf	(27)	;volatile
  8174                           	line	321
  8175                           	
  8176  0009                     l1218:	
  8177  0009  0008               	return
  8178                           	opt stack 0
  8179                           GLOBAL	__end_of_set_pwml
  8180  000A                     	__end_of_set_pwml:
  8181 ;; =============== function _set_pwml ends ============
  8182                           
  8183                           	signat	_set_pwml,4216
  8184                           	global	_set_pwmr
  8185                           psect	text824,local,class=CODE,delta=2
  8186                           global __ptext824
  8187  0858                     __ptext824:
  8188                           
  8189 ;; *************** function _set_pwmr *****************
  8190 ;; Defined at:
  8191 ;;		line 314 in file "Main.c"
  8192 ;; Parameters:    Size  Location     Type
  8193 ;;  uc_duty_cycl    1    wreg     unsigned char 
  8194 ;; Auto vars:     Size  Location     Type
  8195 ;;  uc_duty_cycl    1    0[COMMON] unsigned char 
  8196 ;; Return value:  Size  Location     Type
  8197 ;;		None               void
  8198 ;; Registers used:
  8199 ;;		wreg
  8200 ;; Tracked objects:
  8201 ;;		On entry : 0/0
  8202 ;;		On exit  : 0/0
  8203 ;;		Unchanged: 0/0
  8204 ;; Data sizes:     COMMON   BANK0   BANK1   BANK3   BANK2
  8205 ;;      Params:         0       0       0       0       0
  8206 ;;      Locals:         1       0       0       0       0
  8207 ;;      Temps:          0       0       0       0       0
  8208 ;;      Totals:         1       0       0       0       0
  8209 ;;Total ram usage:        1 bytes
  8210 ;; Hardware stack levels used:    1
  8211 ;; This function calls:
  8212 ;;		Nothing
  8213 ;; This function is called by:
  8214 ;;		_motorspeed
  8215 ;; This function uses a non-reentrant model
  8216 ;;
  8217                           psect	text824
  8218                           	file	"Main.c"
  8219                           	line	314
  8220                           	global	__size_of_set_pwmr
  8221  0006                     	__size_of_set_pwmr	equ	__end_of_set_pwmr-_set_pwmr
  8222                           	
  8223  0858                     _set_pwmr:	
  8224                           	opt	stack 6
  8225                           ; Regs used in _set_pwmr: [wreg]
  8226                           ;set_pwmr@uc_duty_cycle stored from wreg
  8227  0858  00F0               	movwf	(set_pwmr@uc_duty_cycle)
  8228                           	line	315
  8229                           	
  8230  0859                     l4896:	
  8231                           ;Main.c: 315: CCPR1L = uc_duty_cycle;
  8232  0859  0870               	movf	(set_pwmr@uc_duty_cycle),w
  8233  085A  1283               	bcf	status, 5	;RP0=0, select bank0
  8234  085B  1303               	bcf	status, 6	;RP1=0, select bank0
  8235  085C  0095               	movwf	(21)	;volatile
  8236                           	line	316
  8237                           	
  8238  085D                     l1215:	
  8239  085D  0008               	return
  8240                           	opt stack 0
  8241                           GLOBAL	__end_of_set_pwmr
  8242  085E                     	__end_of_set_pwmr:
  8243 ;; =============== function _set_pwmr ends ============
  8244                           
  8245                           	signat	_set_pwmr,4216
  8246                           	global	_PID_UPDATE
  8247                           psect	text825,local,class=CODE,delta=2
  8248                           global __ptext825
  8249  0C30                     __ptext825:
  8250                           
  8251 ;; *************** function _PID_UPDATE *****************
  8252 ;; Defined at:
  8253 ;;		line 234 in file "Main.c"
  8254 ;; Parameters:    Size  Location     Type
  8255 ;;  position        1    wreg     char 
  8256 ;; Auto vars:     Size  Location     Type
  8257 ;;  position        1    2[COMMON] char 
  8258 ;; Return value:  Size  Location     Type
  8259 ;;		None               void
  8260 ;; Registers used:
  8261 ;;		wreg, status,2, status,0, btemp+1
  8262 ;; Tracked objects:
  8263 ;;		On entry : 0/0
  8264 ;;		On exit  : 0/0
  8265 ;;		Unchanged: 0/0
  8266 ;; Data sizes:     COMMON   BANK0   BANK1   BANK3   BANK2
  8267 ;;      Params:         0       0       0       0       0
  8268 ;;      Locals:         1       0       0       0       0
  8269 ;;      Temps:          2       0       0       0       0
  8270 ;;      Totals:         3       0       0       0       0
  8271 ;;Total ram usage:        3 bytes
  8272 ;; Hardware stack levels used:    1
  8273 ;; This function calls:
  8274 ;;		Nothing
  8275 ;; This function is called by:
  8276 ;;		_main
  8277 ;; This function uses a non-reentrant model
  8278 ;;
  8279                           psect	text825
  8280                           	file	"Main.c"
  8281                           	line	234
  8282                           	global	__size_of_PID_UPDATE
  8283  006D                     	__size_of_PID_UPDATE	equ	__end_of_PID_UPDATE-_PID_UPDATE
  8284                           	
  8285  0C30                     _PID_UPDATE:	
  8286                           	opt	stack 7
  8287                           ; Regs used in _PID_UPDATE: [wreg+status,2+status,0+btemp+1]
  8288                           ;PID_UPDATE@position stored from wreg
  8289                           	line	236
  8290  0C30  00F2               	movwf	(PID_UPDATE@position)
  8291                           	line	237
  8292                           	
  8293  0C31                     l4874:	
  8294                           ;Main.c: 236: static signed short proportional0, proportional1,proportional2;
  8295                           ;Main.c: 237: if(position==127){
  8296  0C31  0872               	movf	(PID_UPDATE@position),w
  8297  0C32  3A7F               	xorlw	07Fh
  8298  0C33  1D03               	skipz
  8299  0C34  2C36               	goto	u2811
  8300  0C35  2C37               	goto	u2810
  8301  0C36                     u2811:
  8302  0C36  2C40               	goto	l4878
  8303  0C37                     u2810:
  8304                           	line	238
  8305                           	
  8306  0C37                     l4876:	
  8307                           ;Main.c: 238: proportional=proportional0;
  8308  0C37  1683               	bsf	status, 5	;RP0=1, select bank1
  8309  0C38  1303               	bcf	status, 6	;RP1=0, select bank1
  8310  0C39  0821               	movf	(PID_UPDATE@proportional0+1)^080h,w
  8311  0C3A  01AF               	clrf	(_proportional+1)^080h
  8312  0C3B  07AF               	addwf	(_proportional+1)^080h
  8313  0C3C  0820               	movf	(PID_UPDATE@proportional0)^080h,w
  8314  0C3D  01AE               	clrf	(_proportional)^080h
  8315  0C3E  07AE               	addwf	(_proportional)^080h
  8316                           
  8317                           	line	239
  8318                           ;Main.c: 239: }
  8319  0C3F  2C9C               	goto	l1206
  8320                           	line	240
  8321                           	
  8322  0C40                     l1201:	
  8323                           	line	242
  8324                           	
  8325  0C40                     l4878:	
  8326                           ;Main.c: 240: else{
  8327                           ;Main.c: 242: proportional=(signed short) position;
  8328  0C40  0872               	movf	(PID_UPDATE@position),w
  8329  0C41  1683               	bsf	status, 5	;RP0=1, select bank1
  8330  0C42  1303               	bcf	status, 6	;RP1=0, select bank1
  8331  0C43  00AE               	movwf	(_proportional)^080h
  8332  0C44  01AF               	clrf	(_proportional+1)^080h
  8333  0C45  1BAE               	btfsc	(_proportional)^080h,7
  8334  0C46  03AF               	decf	(_proportional+1)^080h,f
  8335                           	line	243
  8336                           ;Main.c: 243: derivative=proportional-proportional2;
  8337  0C47  0924               	comf	(PID_UPDATE@proportional2)^080h,w
  8338  0C48  00F0               	movwf	(??_PID_UPDATE+0)+0
  8339  0C49  0925               	comf	(PID_UPDATE@proportional2+1)^080h,w
  8340  0C4A  00F1               	movwf	((??_PID_UPDATE+0)+0+1)
  8341  0C4B  0AF0               	incf	(??_PID_UPDATE+0)+0,f
  8342  0C4C  1903               	skipnz
  8343  0C4D  0AF1               	incf	((??_PID_UPDATE+0)+0+1),f
  8344  0C4E  082E               	movf	(_proportional)^080h,w
  8345  0C4F  0770               	addwf	0+(??_PID_UPDATE+0)+0,w
  8346  0C50  00A6               	movwf	(_derivative)^080h
  8347  0C51  082F               	movf	(_proportional+1)^080h,w
  8348  0C52  1803               	skipnc
  8349  0C53  0A2F               	incf	(_proportional+1)^080h,w
  8350  0C54  0771               	addwf	1+(??_PID_UPDATE+0)+0,w
  8351  0C55  00A7               	movwf	1+(_derivative)^080h
  8352                           	line	244
  8353                           	
  8354  0C56                     l4880:	
  8355                           ;Main.c: 244: integral+=proportional;
  8356  0C56  082E               	movf	(_proportional)^080h,w
  8357  0C57  07A8               	addwf	(_integral)^080h,f
  8358  0C58  1803               	skipnc
  8359  0C59  0AA9               	incf	(_integral+1)^080h,f
  8360  0C5A  082F               	movf	(_proportional+1)^080h,w
  8361  0C5B  07A9               	addwf	(_integral+1)^080h,f
  8362                           	line	245
  8363                           	
  8364  0C5C                     l4882:	
  8365                           ;Main.c: 245: if(integral>2000) integral=2000;
  8366  0C5C  0829               	movf	(_integral+1)^080h,w
  8367  0C5D  3A80               	xorlw	80h
  8368  0C5E  00FF               	movwf	btemp+1
  8369  0C5F  3087               	movlw	(high(07D1h))^80h
  8370  0C60  027F               	subwf	btemp+1,w
  8371  0C61  1D03               	skipz
  8372  0C62  2C65               	goto	u2825
  8373  0C63  30D1               	movlw	low(07D1h)
  8374  0C64  0228               	subwf	(_integral)^080h,w
  8375  0C65                     u2825:
  8376                           
  8377  0C65  1C03               	skipc
  8378  0C66  2C68               	goto	u2821
  8379  0C67  2C69               	goto	u2820
  8380  0C68                     u2821:
  8381  0C68  2C70               	goto	l4886
  8382  0C69                     u2820:
  8383                           	
  8384  0C69                     l4884:	
  8385  0C69  30D0               	movlw	low(07D0h)
  8386  0C6A  1683               	bsf	status, 5	;RP0=1, select bank1
  8387  0C6B  1303               	bcf	status, 6	;RP1=0, select bank1
  8388  0C6C  00A8               	movwf	(_integral)^080h
  8389  0C6D  3007               	movlw	high(07D0h)
  8390  0C6E  00A9               	movwf	((_integral)^080h)+1
  8391  0C6F  2C87               	goto	l4890
  8392                           	line	246
  8393                           	
  8394  0C70                     l1203:	
  8395                           	
  8396  0C70                     l4886:	
  8397                           ;Main.c: 246: else if(integral<-2000) integral=-2000;
  8398  0C70  1683               	bsf	status, 5	;RP0=1, select bank1
  8399  0C71  1303               	bcf	status, 6	;RP1=0, select bank1
  8400  0C72  0829               	movf	(_integral+1)^080h,w
  8401  0C73  3A80               	xorlw	80h
  8402  0C74  00FF               	movwf	btemp+1
  8403  0C75  3078               	movlw	(high(-2000))^80h
  8404  0C76  027F               	subwf	btemp+1,w
  8405  0C77  1D03               	skipz
  8406  0C78  2C7B               	goto	u2835
  8407  0C79  3030               	movlw	low(-2000)
  8408  0C7A  0228               	subwf	(_integral)^080h,w
  8409  0C7B                     u2835:
  8410                           
  8411  0C7B  1803               	skipnc
  8412  0C7C  2C7E               	goto	u2831
  8413  0C7D  2C7F               	goto	u2830
  8414  0C7E                     u2831:
  8415  0C7E  2C87               	goto	l4890
  8416  0C7F                     u2830:
  8417                           	
  8418  0C7F                     l4888:	
  8419  0C7F  3030               	movlw	low(-2000)
  8420  0C80  1683               	bsf	status, 5	;RP0=1, select bank1
  8421  0C81  1303               	bcf	status, 6	;RP1=0, select bank1
  8422  0C82  00A8               	movwf	(_integral)^080h
  8423  0C83  30F8               	movlw	high(-2000)
  8424  0C84  00A9               	movwf	((_integral)^080h)+1
  8425  0C85  2C87               	goto	l4890
  8426                           	
  8427  0C86                     l1205:	
  8428  0C86  2C87               	goto	l4890
  8429                           	line	247
  8430                           	
  8431  0C87                     l1204:	
  8432                           	
  8433  0C87                     l4890:	
  8434                           ;Main.c: 247: proportional2=proportional1;
  8435  0C87  1683               	bsf	status, 5	;RP0=1, select bank1
  8436  0C88  1303               	bcf	status, 6	;RP1=0, select bank1
  8437  0C89  0823               	movf	(PID_UPDATE@proportional1+1)^080h,w
  8438  0C8A  01A5               	clrf	(PID_UPDATE@proportional2+1)^080h
  8439  0C8B  07A5               	addwf	(PID_UPDATE@proportional2+1)^080h
  8440  0C8C  0822               	movf	(PID_UPDATE@proportional1)^080h,w
  8441  0C8D  01A4               	clrf	(PID_UPDATE@proportional2)^080h
  8442  0C8E  07A4               	addwf	(PID_UPDATE@proportional2)^080h
  8443                           
  8444                           	line	248
  8445                           	
  8446  0C8F                     l4892:	
  8447                           ;Main.c: 248: proportional1=proportional0;
  8448  0C8F  0821               	movf	(PID_UPDATE@proportional0+1)^080h,w
  8449  0C90  01A3               	clrf	(PID_UPDATE@proportional1+1)^080h
  8450  0C91  07A3               	addwf	(PID_UPDATE@proportional1+1)^080h
  8451  0C92  0820               	movf	(PID_UPDATE@proportional0)^080h,w
  8452  0C93  01A2               	clrf	(PID_UPDATE@proportional1)^080h
  8453  0C94  07A2               	addwf	(PID_UPDATE@proportional1)^080h
  8454                           
  8455                           	line	249
  8456                           	
  8457  0C95                     l4894:	
  8458                           ;Main.c: 249: proportional0=proportional;
  8459  0C95  082F               	movf	(_proportional+1)^080h,w
  8460  0C96  01A1               	clrf	(PID_UPDATE@proportional0+1)^080h
  8461  0C97  07A1               	addwf	(PID_UPDATE@proportional0+1)^080h
  8462  0C98  082E               	movf	(_proportional)^080h,w
  8463  0C99  01A0               	clrf	(PID_UPDATE@proportional0)^080h
  8464  0C9A  07A0               	addwf	(PID_UPDATE@proportional0)^080h
  8465                           
  8466  0C9B  2C9C               	goto	l1206
  8467                           	line	252
  8468                           	
  8469  0C9C                     l1202:	
  8470                           	line	254
  8471                           	
  8472  0C9C                     l1206:	
  8473  0C9C  0008               	return
  8474                           	opt stack 0
  8475                           GLOBAL	__end_of_PID_UPDATE
  8476  0C9D                     	__end_of_PID_UPDATE:
  8477 ;; =============== function _PID_UPDATE ends ============
  8478                           
  8479                           	signat	_PID_UPDATE,4216
  8480                           	global	_pwm_init
  8481                           psect	text826,local,class=CODE,delta=2
  8482                           global __ptext826
  8483  092C                     __ptext826:
  8484                           
  8485 ;; *************** function _pwm_init *****************
  8486 ;; Defined at:
  8487 ;;		line 280 in file "Main.c"
  8488 ;; Parameters:    Size  Location     Type
  8489 ;;		None
  8490 ;; Auto vars:     Size  Location     Type
  8491 ;;		None
  8492 ;; Return value:  Size  Location     Type
  8493 ;;		None               void
  8494 ;; Registers used:
  8495 ;;		wreg, status,2
  8496 ;; Tracked objects:
  8497 ;;		On entry : 0/0
  8498 ;;		On exit  : 0/0
  8499 ;;		Unchanged: 0/0
  8500 ;; Data sizes:     COMMON   BANK0   BANK1   BANK3   BANK2
  8501 ;;      Params:         0       0       0       0       0
  8502 ;;      Locals:         0       0       0       0       0
  8503 ;;      Temps:          0       0       0       0       0
  8504 ;;      Totals:         0       0       0       0       0
  8505 ;;Total ram usage:        0 bytes
  8506 ;; Hardware stack levels used:    1
  8507 ;; This function calls:
  8508 ;;		Nothing
  8509 ;; This function is called by:
  8510 ;;		_main
  8511 ;; This function uses a non-reentrant model
  8512 ;;
  8513                           psect	text826
  8514                           	file	"Main.c"
  8515                           	line	280
  8516                           	global	__size_of_pwm_init
  8517  001A                     	__size_of_pwm_init	equ	__end_of_pwm_init-_pwm_init
  8518                           	
  8519  092C                     _pwm_init:	
  8520                           	opt	stack 7
  8521                           ; Regs used in _pwm_init: [wreg+status,2]
  8522                           	line	282
  8523                           	
  8524  092C                     l4834:	
  8525                           ;Main.c: 282: PR2 = 254;
  8526  092C  30FE               	movlw	(0FEh)
  8527  092D  1683               	bsf	status, 5	;RP0=1, select bank1
  8528  092E  1303               	bcf	status, 6	;RP1=0, select bank1
  8529  092F  0092               	movwf	(146)^080h	;volatile
  8530                           	line	283
  8531                           	
  8532  0930                     l4836:	
  8533                           ;Main.c: 283: T2CKPS1 = 0;
  8534  0930  1283               	bcf	status, 5	;RP0=0, select bank0
  8535  0931  1303               	bcf	status, 6	;RP1=0, select bank0
  8536  0932  1092               	bcf	(145/8),(145)&7
  8537                           	line	284
  8538                           	
  8539  0933                     l4838:	
  8540                           ;Main.c: 284: T2CKPS0 = 1;
  8541  0933  1412               	bsf	(144/8),(144)&7
  8542                           	line	286
  8543                           	
  8544  0934                     l4840:	
  8545                           ;Main.c: 286: CCPR1L = 0;
  8546  0934  0195               	clrf	(21)	;volatile
  8547                           	line	287
  8548                           	
  8549  0935                     l4842:	
  8550                           ;Main.c: 287: CCPR2L = 0;
  8551  0935  019B               	clrf	(27)	;volatile
  8552                           	line	288
  8553                           	
  8554  0936                     l4844:	
  8555                           ;Main.c: 288: TMR2ON = 1;
  8556  0936  1512               	bsf	(146/8),(146)&7
  8557                           	line	291
  8558                           	
  8559  0937                     l4846:	
  8560                           ;Main.c: 291: P1M1 = 0;
  8561  0937  1397               	bcf	(191/8),(191)&7
  8562                           	line	292
  8563                           	
  8564  0938                     l4848:	
  8565                           ;Main.c: 292: P1M0 = 0;
  8566  0938  1317               	bcf	(190/8),(190)&7
  8567                           	line	294
  8568                           	
  8569  0939                     l4850:	
  8570                           ;Main.c: 294: DC1B1 = 0;
  8571  0939  1297               	bcf	(189/8),(189)&7
  8572                           	line	295
  8573                           	
  8574  093A                     l4852:	
  8575                           ;Main.c: 295: DC1B0 = 0;
  8576  093A  1217               	bcf	(188/8),(188)&7
  8577                           	line	297
  8578                           	
  8579  093B                     l4854:	
  8580                           ;Main.c: 297: CCP1M3 = 1;
  8581  093B  1597               	bsf	(187/8),(187)&7
  8582                           	line	298
  8583                           	
  8584  093C                     l4856:	
  8585                           ;Main.c: 298: CCP1M2 = 1;
  8586  093C  1517               	bsf	(186/8),(186)&7
  8587                           	line	299
  8588                           	
  8589  093D                     l4858:	
  8590                           ;Main.c: 299: CCP1M1 = 0;
  8591  093D  1097               	bcf	(185/8),(185)&7
  8592                           	line	300
  8593                           	
  8594  093E                     l4860:	
  8595                           ;Main.c: 300: CCP1M0 = 0;
  8596  093E  1017               	bcf	(184/8),(184)&7
  8597                           	line	303
  8598                           	
  8599  093F                     l4862:	
  8600                           ;Main.c: 303: CCP2X = 0;
  8601  093F  129D               	bcf	(237/8),(237)&7
  8602                           	line	304
  8603                           	
  8604  0940                     l4864:	
  8605                           ;Main.c: 304: CCP2Y = 0;
  8606  0940  121D               	bcf	(236/8),(236)&7
  8607                           	line	306
  8608                           	
  8609  0941                     l4866:	
  8610                           ;Main.c: 306: CCP2M3 = 1;
  8611  0941  159D               	bsf	(235/8),(235)&7
  8612                           	line	307
  8613                           	
  8614  0942                     l4868:	
  8615                           ;Main.c: 307: CCP2M2 = 1;
  8616  0942  151D               	bsf	(234/8),(234)&7
  8617                           	line	308
  8618                           	
  8619  0943                     l4870:	
  8620                           ;Main.c: 308: CCP2M1 = 0;
  8621  0943  109D               	bcf	(233/8),(233)&7
  8622                           	line	309
  8623                           	
  8624  0944                     l4872:	
  8625                           ;Main.c: 309: CCP2M0 = 0;
  8626  0944  101D               	bcf	(232/8),(232)&7
  8627                           	line	311
  8628                           	
  8629  0945                     l1212:	
  8630  0945  0008               	return
  8631                           	opt stack 0
  8632                           GLOBAL	__end_of_pwm_init
  8633  0946                     	__end_of_pwm_init:
  8634 ;; =============== function _pwm_init ends ============
  8635                           
  8636                           	signat	_pwm_init,88
  8637                           	global	_initIO
  8638                           psect	text827,local,class=CODE,delta=2
  8639                           global __ptext827
  8640  0912                     __ptext827:
  8641                           
  8642 ;; *************** function _initIO *****************
  8643 ;; Defined at:
  8644 ;;		line 257 in file "Main.c"
  8645 ;; Parameters:    Size  Location     Type
  8646 ;;		None
  8647 ;; Auto vars:     Size  Location     Type
  8648 ;;		None
  8649 ;; Return value:  Size  Location     Type
  8650 ;;		None               void
  8651 ;; Registers used:
  8652 ;;		wreg, status,2
  8653 ;; Tracked objects:
  8654 ;;		On entry : 0/0
  8655 ;;		On exit  : 0/0
  8656 ;;		Unchanged: 0/0
  8657 ;; Data sizes:     COMMON   BANK0   BANK1   BANK3   BANK2
  8658 ;;      Params:         0       0       0       0       0
  8659 ;;      Locals:         0       0       0       0       0
  8660 ;;      Temps:          0       0       0       0       0
  8661 ;;      Totals:         0       0       0       0       0
  8662 ;;Total ram usage:        0 bytes
  8663 ;; Hardware stack levels used:    1
  8664 ;; This function calls:
  8665 ;;		Nothing
  8666 ;; This function is called by:
  8667 ;;		_main
  8668 ;; This function uses a non-reentrant model
  8669 ;;
  8670                           psect	text827
  8671                           	file	"Main.c"
  8672                           	line	257
  8673                           	global	__size_of_initIO
  8674  001A                     	__size_of_initIO	equ	__end_of_initIO-_initIO
  8675                           	
  8676  0912                     _initIO:	
  8677                           	opt	stack 7
  8678                           ; Regs used in _initIO: [wreg+status,2]
  8679                           	line	261
  8680                           	
  8681  0912                     l4816:	
  8682                           ;Main.c: 261: PORTB = 0;
  8683  0912  1283               	bcf	status, 5	;RP0=0, select bank0
  8684  0913  1303               	bcf	status, 6	;RP1=0, select bank0
  8685  0914  0186               	clrf	(6)	;volatile
  8686                           	line	262
  8687                           ;Main.c: 262: PORTC = 0;
  8688  0915  0187               	clrf	(7)	;volatile
  8689                           	line	263
  8690                           ;Main.c: 263: PORTD = 0;
  8691  0916  0188               	clrf	(8)	;volatile
  8692                           	line	264
  8693                           ;Main.c: 264: PORTE = 0;
  8694  0917  0189               	clrf	(9)	;volatile
  8695                           	line	267
  8696                           	
  8697  0918                     l4818:	
  8698                           ;Main.c: 267: TRISA = 0b11111111;
  8699  0918  30FF               	movlw	(0FFh)
  8700  0919  1683               	bsf	status, 5	;RP0=1, select bank1
  8701  091A  1303               	bcf	status, 6	;RP1=0, select bank1
  8702  091B  0085               	movwf	(133)^080h	;volatile
  8703                           	line	268
  8704                           	
  8705  091C                     l4820:	
  8706                           ;Main.c: 268: TRISB = 0b00000011;
  8707  091C  3003               	movlw	(03h)
  8708  091D  0086               	movwf	(134)^080h	;volatile
  8709                           	line	269
  8710                           	
  8711  091E                     l4822:	
  8712                           ;Main.c: 269: TRISC = 0b10010000;
  8713  091E  3090               	movlw	(090h)
  8714  091F  0087               	movwf	(135)^080h	;volatile
  8715                           	line	270
  8716                           	
  8717  0920                     l4824:	
  8718                           ;Main.c: 270: TRISD = 0;
  8719  0920  0188               	clrf	(136)^080h	;volatile
  8720                           	line	271
  8721                           ;Main.c: 271: TRISE = 0b00000011;
  8722  0921  3003               	movlw	(03h)
  8723  0922  0089               	movwf	(137)^080h	;volatile
  8724                           	line	273
  8725                           	
  8726  0923                     l4826:	
  8727                           ;Main.c: 273: ANSEL=0x00;
  8728  0923  1683               	bsf	status, 5	;RP0=1, select bank3
  8729  0924  1703               	bsf	status, 6	;RP1=1, select bank3
  8730  0925  0188               	clrf	(392)^0180h	;volatile
  8731                           	line	274
  8732                           	
  8733  0926                     l4828:	
  8734                           ;Main.c: 274: ANSELH=0x00;
  8735  0926  0189               	clrf	(393)^0180h	;volatile
  8736                           	line	276
  8737                           	
  8738  0927                     l4830:	
  8739                           ;Main.c: 276: RB6=0; RB7=0;
  8740  0927  1283               	bcf	status, 5	;RP0=0, select bank0
  8741  0928  1303               	bcf	status, 6	;RP1=0, select bank0
  8742  0929  1306               	bcf	(54/8),(54)&7
  8743                           	
  8744  092A                     l4832:	
  8745  092A  1386               	bcf	(55/8),(55)&7
  8746                           	line	278
  8747                           	
  8748  092B                     l1209:	
  8749  092B  0008               	return
  8750                           	opt stack 0
  8751                           GLOBAL	__end_of_initIO
  8752  092C                     	__end_of_initIO:
  8753 ;; =============== function _initIO ends ============
  8754                           
  8755                           	signat	_initIO,88
  8756                           	global	_UART_INIT
  8757                           psect	text828,local,class=CODE,delta=2
  8758                           global __ptext828
  8759  08FA                     __ptext828:
  8760                           
  8761 ;; *************** function _UART_INIT *****************
  8762 ;; Defined at:
  8763 ;;		line 424 in file "Main.c"
  8764 ;; Parameters:    Size  Location     Type
  8765 ;;		None
  8766 ;; Auto vars:     Size  Location     Type
  8767 ;;		None
  8768 ;; Return value:  Size  Location     Type
  8769 ;;		None               void
  8770 ;; Registers used:
  8771 ;;		wreg, status,2
  8772 ;; Tracked objects:
  8773 ;;		On entry : 0/0
  8774 ;;		On exit  : 0/0
  8775 ;;		Unchanged: 0/0
  8776 ;; Data sizes:     COMMON   BANK0   BANK1   BANK3   BANK2
  8777 ;;      Params:         0       0       0       0       0
  8778 ;;      Locals:         0       0       0       0       0
  8779 ;;      Temps:          0       0       0       0       0
  8780 ;;      Totals:         0       0       0       0       0
  8781 ;;Total ram usage:        0 bytes
  8782 ;; Hardware stack levels used:    1
  8783 ;; This function calls:
  8784 ;;		Nothing
  8785 ;; This function is called by:
  8786 ;;		_LSA08_Init
  8787 ;; This function uses a non-reentrant model
  8788 ;;
  8789                           psect	text828
  8790                           	file	"Main.c"
  8791                           	line	424
  8792                           	global	__size_of_UART_INIT
  8793  0018                     	__size_of_UART_INIT	equ	__end_of_UART_INIT-_UART_INIT
  8794                           	
  8795  08FA                     _UART_INIT:	
  8796                           	opt	stack 6
  8797                           ; Regs used in _UART_INIT: [wreg+status,2]
  8798                           	line	427
  8799                           	
  8800  08FA                     l4760:	
  8801                           ;Main.c: 427: TRISCbits.TRISC7=1;
  8802  08FA  1683               	bsf	status, 5	;RP0=1, select bank1
  8803  08FB  1303               	bcf	status, 6	;RP1=0, select bank1
  8804  08FC  1787               	bsf	(135)^080h,7	;volatile
  8805                           	line	428
  8806                           ;Main.c: 428: TRISCbits.TRISC6=0;
  8807  08FD  1307               	bcf	(135)^080h,6	;volatile
  8808                           	line	431
  8809                           ;Main.c: 431: TRISCbits.TRISC5=0;
  8810  08FE  1287               	bcf	(135)^080h,5	;volatile
  8811                           	line	435
  8812                           ;Main.c: 435: TXSTAbits.BRGH = 1;
  8813  08FF  1518               	bsf	(152)^080h,2	;volatile
  8814                           	line	436
  8815                           ;Main.c: 436: BAUDCTLbits.BRG16=1;
  8816  0900  1683               	bsf	status, 5	;RP0=1, select bank3
  8817  0901  1703               	bsf	status, 6	;RP1=1, select bank3
  8818  0902  1587               	bsf	(391)^0180h,3	;volatile
  8819                           	line	438
  8820                           	
  8821  0903                     l4762:	
  8822                           ;Main.c: 438: SPBRG =0x56; SPBRGH=0x00;
  8823  0903  3056               	movlw	(056h)
  8824  0904  1683               	bsf	status, 5	;RP0=1, select bank1
  8825  0905  1303               	bcf	status, 6	;RP1=0, select bank1
  8826  0906  0099               	movwf	(153)^080h	;volatile
  8827                           	
  8828  0907                     l4764:	
  8829  0907  019A               	clrf	(154)^080h	;volatile
  8830                           	line	439
  8831                           	
  8832  0908                     l4766:	
  8833                           ;Main.c: 439: RCSTAbits.SPEN = 1;
  8834  0908  1283               	bcf	status, 5	;RP0=0, select bank0
  8835  0909  1303               	bcf	status, 6	;RP1=0, select bank0
  8836  090A  1798               	bsf	(24),7	;volatile
  8837                           	line	440
  8838                           	
  8839  090B                     l4768:	
  8840                           ;Main.c: 440: TXSTAbits.TXEN = 1;
  8841  090B  1683               	bsf	status, 5	;RP0=1, select bank1
  8842  090C  1303               	bcf	status, 6	;RP1=0, select bank1
  8843  090D  1698               	bsf	(152)^080h,5	;volatile
  8844                           	line	441
  8845                           	
  8846  090E                     l4770:	
  8847                           ;Main.c: 441: RCSTAbits.CREN = 1;
  8848  090E  1283               	bcf	status, 5	;RP0=0, select bank0
  8849  090F  1303               	bcf	status, 6	;RP1=0, select bank0
  8850  0910  1618               	bsf	(24),4	;volatile
  8851                           	line	443
  8852                           	
  8853  0911                     l1264:	
  8854  0911  0008               	return
  8855                           	opt stack 0
  8856                           GLOBAL	__end_of_UART_INIT
  8857  0912                     	__end_of_UART_INIT:
  8858 ;; =============== function _UART_INIT ends ============
  8859                           
  8860                           	signat	_UART_INIT,88
  8861                           	global	_UART_SEND
  8862                           psect	text829,local,class=CODE,delta=2
  8863                           global __ptext829
  8864  087D                     __ptext829:
  8865                           
  8866 ;; *************** function _UART_SEND *****************
  8867 ;; Defined at:
  8868 ;;		line 446 in file "Main.c"
  8869 ;; Parameters:    Size  Location     Type
  8870 ;;  data            1    wreg     unsigned char 
  8871 ;; Auto vars:     Size  Location     Type
  8872 ;;  data            1    0[COMMON] unsigned char 
  8873 ;; Return value:  Size  Location     Type
  8874 ;;		None               void
  8875 ;; Registers used:
  8876 ;;		wreg
  8877 ;; Tracked objects:
  8878 ;;		On entry : 0/0
  8879 ;;		On exit  : 0/0
  8880 ;;		Unchanged: 0/0
  8881 ;; Data sizes:     COMMON   BANK0   BANK1   BANK3   BANK2
  8882 ;;      Params:         0       0       0       0       0
  8883 ;;      Locals:         1       0       0       0       0
  8884 ;;      Temps:          0       0       0       0       0
  8885 ;;      Totals:         1       0       0       0       0
  8886 ;;Total ram usage:        1 bytes
  8887 ;; Hardware stack levels used:    1
  8888 ;; This function calls:
  8889 ;;		Nothing
  8890 ;; This function is called by:
  8891 ;;		_SEND_PACKET
  8892 ;; This function uses a non-reentrant model
  8893 ;;
  8894                           psect	text829
  8895                           	file	"Main.c"
  8896                           	line	446
  8897                           	global	__size_of_UART_SEND
  8898  000E                     	__size_of_UART_SEND	equ	__end_of_UART_SEND-_UART_SEND
  8899                           	
  8900  087D                     _UART_SEND:	
  8901                           	opt	stack 4
  8902                           ; Regs used in _UART_SEND: [wreg]
  8903                           ;UART_SEND@data stored from wreg
  8904  087D  00F0               	movwf	(UART_SEND@data)
  8905                           	line	447
  8906                           	
  8907  087E                     l4756:	
  8908                           ;Main.c: 447: while(!TRMT) ;
  8909  087E  287F               	goto	l1267
  8910                           	
  8911  087F                     l1268:	
  8912                           	
  8913  087F                     l1267:	
  8914  087F  1683               	bsf	status, 5	;RP0=1, select bank1
  8915  0880  1303               	bcf	status, 6	;RP1=0, select bank1
  8916  0881  1C98               	btfss	(1217/8)^080h,(1217)&7
  8917  0882  2884               	goto	u2761
  8918  0883  2885               	goto	u2760
  8919  0884                     u2761:
  8920  0884  287F               	goto	l1267
  8921  0885                     u2760:
  8922  0885  2886               	goto	l4758
  8923                           	
  8924  0886                     l1269:	
  8925                           	line	448
  8926                           	
  8927  0886                     l4758:	
  8928                           ;Main.c: 448: TXREG=data;
  8929  0886  0870               	movf	(UART_SEND@data),w
  8930  0887  1283               	bcf	status, 5	;RP0=0, select bank0
  8931  0888  1303               	bcf	status, 6	;RP1=0, select bank0
  8932  0889  0099               	movwf	(25)	;volatile
  8933                           	line	450
  8934                           	
  8935  088A                     l1270:	
  8936  088A  0008               	return
  8937                           	opt stack 0
  8938                           GLOBAL	__end_of_UART_SEND
  8939  088B                     	__end_of_UART_SEND:
  8940 ;; =============== function _UART_SEND ends ============
  8941                           
  8942                           	signat	_UART_SEND,4216
  8943                           	global	_UART_REC
  8944                           psect	text830,local,class=CODE,delta=2
  8945                           global __ptext830
  8946  0BC5                     __ptext830:
  8947                           
  8948 ;; *************** function _UART_REC *****************
  8949 ;; Defined at:
  8950 ;;		line 453 in file "Main.c"
  8951 ;; Parameters:    Size  Location     Type
  8952 ;;		None
  8953 ;; Auto vars:     Size  Location     Type
  8954 ;;  waitcount       4    1[COMMON] unsigned long 
  8955 ;;  rec_data        1    5[COMMON] unsigned char 
  8956 ;; Return value:  Size  Location     Type
  8957 ;;                  1    wreg      unsigned char 
  8958 ;; Registers used:
  8959 ;;		wreg, status,2, status,0
  8960 ;; Tracked objects:
  8961 ;;		On entry : 0/0
  8962 ;;		On exit  : 0/0
  8963 ;;		Unchanged: 0/0
  8964 ;; Data sizes:     COMMON   BANK0   BANK1   BANK3   BANK2
  8965 ;;      Params:         0       0       0       0       0
  8966 ;;      Locals:         5       0       0       0       0
  8967 ;;      Temps:          1       0       0       0       0
  8968 ;;      Totals:         6       0       0       0       0
  8969 ;;Total ram usage:        6 bytes
  8970 ;; Hardware stack levels used:    1
  8971 ;; This function calls:
  8972 ;;		Nothing
  8973 ;; This function is called by:
  8974 ;;		_UART_RESPONSE
  8975 ;;		_LSA08_GetPosition
  8976 ;;		_UART_DUMP
  8977 ;; This function uses a non-reentrant model
  8978 ;;
  8979                           psect	text830
  8980                           	file	"Main.c"
  8981                           	line	453
  8982                           	global	__size_of_UART_REC
  8983  006B                     	__size_of_UART_REC	equ	__end_of_UART_REC-_UART_REC
  8984                           	
  8985  0BC5                     _UART_REC:	
  8986                           	opt	stack 5
  8987                           ; Regs used in _UART_REC: [wreg+status,2+status,0]
  8988                           	line	454
  8989                           	
  8990  0BC5                     l4714:	
  8991                           ;Main.c: 454: unsigned long waitcount=0;
  8992  0BC5  3000               	movlw	0
  8993  0BC6  00F4               	movwf	(UART_REC@waitcount+3)
  8994  0BC7  3000               	movlw	0
  8995  0BC8  00F3               	movwf	(UART_REC@waitcount+2)
  8996  0BC9  3000               	movlw	0
  8997  0BCA  00F2               	movwf	(UART_REC@waitcount+1)
  8998  0BCB  3000               	movlw	0
  8999  0BCC  00F1               	movwf	(UART_REC@waitcount)
  9000                           
  9001                           	line	457
  9002                           	
  9003  0BCD                     l4716:	
  9004                           ;Main.c: 455: unsigned char rec_data;
  9005                           ;Main.c: 457: if(RCSTAbits.OERR){
  9006  0BCD  1283               	bcf	status, 5	;RP0=0, select bank0
  9007  0BCE  1303               	bcf	status, 6	;RP1=0, select bank0
  9008  0BCF  1C98               	btfss	(24),1	;volatile
  9009  0BD0  2BD2               	goto	u2711
  9010  0BD1  2BD3               	goto	u2710
  9011  0BD2                     u2711:
  9012  0BD2  2C06               	goto	l1275
  9013  0BD3                     u2710:
  9014                           	line	458
  9015                           	
  9016  0BD3                     l4718:	
  9017                           ;Main.c: 458: RCSTAbits.CREN=0;
  9018  0BD3  1218               	bcf	(24),4	;volatile
  9019                           	line	459
  9020                           ;Main.c: 459: RCSTAbits.CREN=1;
  9021  0BD4  1618               	bsf	(24),4	;volatile
  9022                           	line	460
  9023                           	
  9024  0BD5                     l4720:	
  9025                           ;Main.c: 460: ERR_FLAG=1;
  9026  0BD5  1683               	bsf	status, 5	;RP0=1, select bank1
  9027  0BD6  1303               	bcf	status, 6	;RP1=0, select bank1
  9028  0BD7  01B2               	clrf	(_ERR_FLAG)^080h
  9029  0BD8  1403               	bsf	status,0
  9030  0BD9  0DB2               	rlf	(_ERR_FLAG)^080h,f
  9031                           	line	461
  9032                           	
  9033  0BDA                     l4722:	
  9034                           ;Main.c: 461: return(255);
  9035  0BDA  30FF               	movlw	(0FFh)
  9036  0BDB  2C2F               	goto	l1274
  9037                           	
  9038  0BDC                     l4724:	
  9039  0BDC  2C2F               	goto	l1274
  9040                           	line	462
  9041                           	
  9042  0BDD                     l1273:	
  9043                           	line	464
  9044                           ;Main.c: 462: }
  9045                           ;Main.c: 464: while (RCIF == 0)
  9046  0BDD  2C06               	goto	l1275
  9047                           	
  9048  0BDE                     l1276:	
  9049                           	line	466
  9050                           	
  9051  0BDE                     l4726:	
  9052                           ;Main.c: 465: {
  9053                           ;Main.c: 466: waitcount++;
  9054  0BDE  3001               	movlw	01h
  9055  0BDF  07F1               	addwf	(UART_REC@waitcount),f
  9056  0BE0  3000               	movlw	0
  9057  0BE1  1803               	skipnc
  9058  0BE2  3001               movlw 1
  9059  0BE3  07F2               	addwf	(UART_REC@waitcount+1),f
  9060  0BE4  3000               	movlw	0
  9061  0BE5  1803               	skipnc
  9062  0BE6  3001               movlw 1
  9063  0BE7  07F3               	addwf	(UART_REC@waitcount+2),f
  9064  0BE8  3000               	movlw	0
  9065  0BE9  1803               	skipnc
  9066  0BEA  3001               movlw 1
  9067  0BEB  07F4               	addwf	(UART_REC@waitcount+3),f
  9068                           	line	467
  9069                           ;Main.c: 467: if (waitcount > 15000){
  9070  0BEC  3000               	movlw	0
  9071  0BED  0274               	subwf	(UART_REC@waitcount+3),w
  9072  0BEE  1D03               	skipz
  9073  0BEF  2BFA               	goto	u2725
  9074  0BF0  3000               	movlw	0
  9075  0BF1  0273               	subwf	(UART_REC@waitcount+2),w
  9076  0BF2  1D03               	skipz
  9077  0BF3  2BFA               	goto	u2725
  9078  0BF4  303A               	movlw	03Ah
  9079  0BF5  0272               	subwf	(UART_REC@waitcount+1),w
  9080  0BF6  1D03               	skipz
  9081  0BF7  2BFA               	goto	u2725
  9082  0BF8  3099               	movlw	099h
  9083  0BF9  0271               	subwf	(UART_REC@waitcount),w
  9084  0BFA                     u2725:
  9085  0BFA  1C03               	skipc
  9086  0BFB  2BFD               	goto	u2721
  9087  0BFC  2BFE               	goto	u2720
  9088  0BFD                     u2721:
  9089  0BFD  2C06               	goto	l1275
  9090  0BFE                     u2720:
  9091                           	line	468
  9092                           	
  9093  0BFE                     l4728:	
  9094                           ;Main.c: 468: ERR_FLAG=1;
  9095  0BFE  1683               	bsf	status, 5	;RP0=1, select bank1
  9096  0BFF  1303               	bcf	status, 6	;RP1=0, select bank1
  9097  0C00  01B2               	clrf	(_ERR_FLAG)^080h
  9098  0C01  1403               	bsf	status,0
  9099  0C02  0DB2               	rlf	(_ERR_FLAG)^080h,f
  9100                           	line	469
  9101                           	
  9102  0C03                     l4730:	
  9103                           ;Main.c: 469: return (255);
  9104  0C03  30FF               	movlw	(0FFh)
  9105  0C04  2C2F               	goto	l1274
  9106                           	
  9107  0C05                     l4732:	
  9108  0C05  2C2F               	goto	l1274
  9109                           	line	470
  9110                           	
  9111  0C06                     l1277:	
  9112                           	line	471
  9113                           	
  9114  0C06                     l1275:	
  9115                           	line	464
  9116  0C06  1283               	bcf	status, 5	;RP0=0, select bank0
  9117  0C07  1E8C               	btfss	(101/8),(101)&7
  9118  0C08  2C0A               	goto	u2731
  9119  0C09  2C0B               	goto	u2730
  9120  0C0A                     u2731:
  9121  0C0A  2BDE               	goto	l4726
  9122  0C0B                     u2730:
  9123  0C0B  2C0C               	goto	l4734
  9124                           	
  9125  0C0C                     l1278:	
  9126                           	line	473
  9127                           	
  9128  0C0C                     l4734:	
  9129                           ;Main.c: 470: }
  9130                           ;Main.c: 471: }
  9131                           ;Main.c: 473: rec_data = RCREG;
  9132  0C0C  081A               	movf	(26),w	;volatile
  9133  0C0D  00F0               	movwf	(??_UART_REC+0)+0
  9134  0C0E  0870               	movf	(??_UART_REC+0)+0,w
  9135  0C0F  00F5               	movwf	(UART_REC@rec_data)
  9136                           	line	475
  9137                           	
  9138  0C10                     l4736:	
  9139                           ;Main.c: 475: if (FERR == 1) {
  9140  0C10  1D18               	btfss	(194/8),(194)&7
  9141  0C11  2C13               	goto	u2741
  9142  0C12  2C14               	goto	u2740
  9143  0C13                     u2741:
  9144  0C13  2C29               	goto	l1279
  9145  0C14                     u2740:
  9146  0C14  2C1B               	goto	l4742
  9147                           	line	476
  9148                           	
  9149  0C15                     l4738:	
  9150                           ;Main.c: 476: while(RCIF) rec_data=RCREG;
  9151  0C15  2C1B               	goto	l4742
  9152                           	
  9153  0C16                     l1281:	
  9154                           	
  9155  0C16                     l4740:	
  9156  0C16  081A               	movf	(26),w	;volatile
  9157  0C17  00F0               	movwf	(??_UART_REC+0)+0
  9158  0C18  0870               	movf	(??_UART_REC+0)+0,w
  9159  0C19  00F5               	movwf	(UART_REC@rec_data)
  9160  0C1A  2C1B               	goto	l4742
  9161                           	
  9162  0C1B                     l1280:	
  9163                           	
  9164  0C1B                     l4742:	
  9165  0C1B  1A8C               	btfsc	(101/8),(101)&7
  9166  0C1C  2C1E               	goto	u2751
  9167  0C1D  2C1F               	goto	u2750
  9168  0C1E                     u2751:
  9169  0C1E  2C16               	goto	l4740
  9170  0C1F                     u2750:
  9171  0C1F  2C20               	goto	l4744
  9172                           	
  9173  0C20                     l1282:	
  9174                           	line	477
  9175                           	
  9176  0C20                     l4744:	
  9177                           ;Main.c: 477: ERR_FLAG=1;
  9178  0C20  1683               	bsf	status, 5	;RP0=1, select bank1
  9179  0C21  1303               	bcf	status, 6	;RP1=0, select bank1
  9180  0C22  01B2               	clrf	(_ERR_FLAG)^080h
  9181  0C23  1403               	bsf	status,0
  9182  0C24  0DB2               	rlf	(_ERR_FLAG)^080h,f
  9183                           	line	478
  9184                           	
  9185  0C25                     l4746:	
  9186                           ;Main.c: 478: return (255);
  9187  0C25  30FF               	movlw	(0FFh)
  9188  0C26  2C2F               	goto	l1274
  9189                           	
  9190  0C27                     l4748:	
  9191  0C27  2C2F               	goto	l1274
  9192                           	line	479
  9193                           	
  9194  0C28                     l4750:	
  9195                           ;Main.c: 479: }
  9196  0C28  2C2F               	goto	l1274
  9197                           	line	480
  9198                           	
  9199  0C29                     l1279:	
  9200                           	line	481
  9201                           ;Main.c: 480: else{
  9202                           ;Main.c: 481: ERR_FLAG=0;
  9203  0C29  1683               	bsf	status, 5	;RP0=1, select bank1
  9204  0C2A  1303               	bcf	status, 6	;RP1=0, select bank1
  9205  0C2B  01B2               	clrf	(_ERR_FLAG)^080h
  9206                           	line	482
  9207                           	
  9208  0C2C                     l4752:	
  9209                           ;Main.c: 482: return rec_data;
  9210  0C2C  0875               	movf	(UART_REC@rec_data),w
  9211  0C2D  2C2F               	goto	l1274
  9212                           	
  9213  0C2E                     l4754:	
  9214  0C2E  2C2F               	goto	l1274
  9215                           	line	483
  9216                           	
  9217  0C2F                     l1283:	
  9218                           	line	484
  9219                           	
  9220  0C2F                     l1274:	
  9221  0C2F  0008               	return
  9222                           	opt stack 0
  9223                           GLOBAL	__end_of_UART_REC
  9224  0C30                     	__end_of_UART_REC:
  9225 ;; =============== function _UART_REC ends ============
  9226                           
  9227                           	signat	_UART_REC,89
  9228                           psect	text831,local,class=CODE,delta=2
  9229                           global __ptext831
  9230  0000                     __ptext831:
  9231                           	global	btemp
  9232  007E                     	btemp set 07Eh
  9233                           
  9234                           	DABS	1,126,2	;btemp
  9235                           	global	wtemp0
  9236  007E                     	wtemp0 set btemp


HI-TECH Software PICC Macro Assembler V9.83 build 10920 
Symbol Table                                                                                   Fri Jun 29 18:28:52 2012

                   ?_LSA08_Init 0070     __end_of_LSA08_ClearJunction 08BE                               pc 0002  
                            _RD 0C60                              _Kd 00C2                              _Ki 00C5  
                            _WR 0C61                              _Kp 00C8                              fsr 0004  
                  ___ftadd@exp1 0051                    ___ftadd@exp2 0050                    ___ftadd@sign 004F  
                           _GIE 005F                             _RB0 0030                             _RB1 0031  
                           _RC0 0038                             _RB4 0034                             _RC3 003B  
                           _RB5 0035                             _RB6 0036                             _RB7 0037  
                           _PR2 0092                             _max 00CB                             _rec 00B0  
                           fsr0 0004                             indf 0000                 send_config@data 0078  
                  _proportional 00AE                            l1100 08F9                            l1103 0AAA  
                          l1104 0AB9                            l1112 08BD                            l1201 0C40  
                          l1105 0ACA                            l1202 0C9C                            l1106 0AD1  
                          l1130 098B                            l1203 0C70                            l1131 09A0  
                          l1212 0945                            l1204 0C87                            l1205 0C86  
                          l1221 0898                            l1141 0196                            l1206 0C9C  
                          l1150 02FE                            l1142 0196                            l1215 085D  
                          l1151 0310                            l1143 019D                            l1232 0A2B  
                          l1240 0962                            l1224 0A79                            l1160 055A  
                          l1152 0311                            l1144 01C1                            l1209 092B  
                          l1161 052C                            l1153 0318                            l1145 02C8  
                          l1218 0009                            l1090 003E                            l1250 0B32  
                          l1170 07FF                            l1162 053C                            l1146 02D2  
                          l1227 0ADC                            l1091 003B                            l1235 0A06  
                          l1243 08E4                            l1251 0B32                            l1171 06BA  
                          l1163 06C7                            l1147 02D1                            l1228 0B01  
                          l2300 0B6E                            l1092 0037                            l1260 0E13  
                          l1180 06CF                            l1172 05AC                            l1164 059E  
                          l1156 0326                            l1148 02F5                            l1229 0B01  
                          l2301 0B76                            l1093 003A                            l1261 0E13  
                          l1181 06CF                            l1173 0604                            l1165 056B  
                          l1157 0479                            l1149 02FF                            l1270 088A  
                          l1094 003E                            l1238 0955                            l1246 0B1A  
                          l1254 0DD4                            l1190 07ED                            l1182 06D4  
                          l1174 06C7                            l1166 059E                            l1158 054D  
                          l1239 0962                            l1247 0B03                            l1255 0D94  
                          l1191 07FE                            l1183 07EF                            l1175 0605  
                          l1167 059D                            l1159 051C                            l1280 0C1B  
                          l1264 0911                            l1256 0DCF                            l1184 06D5  
                          l1176 065E                            l1192 07FF                            l1168 05A4  
                          l1281 0C16                            l1273 0BDD                            l1089 001D  
                          l1097 0A50                            l1249 0B31                            l1257 0DDB  
                          l1185 0731                            l1177 065F                            l1169 05AB  
                          l1282 0C20                            l1274 0C2F                            l2330 0F14  
                          l2322 0EF1                            l1258 0DF8                            l1186 07FC  
                          l1178 06B8                            l1283 0C2F                            l1275 0C06  
                          l1267 087F                            l2331 0F59                            l2403 09E1  
                          l1259 0DEB                            l1179 07FD                            l1187 0732  
                          l1276 0BDE                            l1268 087F                            l2340 0F90  
                          l2332 0F29                            l2324 0EE9                            l1188 078F  
                          l1277 0C06                            l1269 0886                            l2341 0F60  
                          l2325 0FFF                            l1189 0790                            l1278 0C0C  
                          l1286 08A3                            l2350 0FE3                            l2334 0F42  
                          l2326 0F06                            l2414 0A8A                            l1279 0C29  
                          l1287 089A                            l2343 0F79                            l2335 0F43  
                          l2415 0AA5                            l1288 08AA                            l2344 0F7A  
                          l2336 0F51                            l2328 0F05                            l2441 087B  
                          l1289 08AA                            l2345 0F88                            l2337 0F44  
                          l2329 0F0F                            l2361 0981                            l2290 0BBC  
                          l2610 0D1F                            l2442 087C                            l2346 0F7B  
                          l2338 0F58                            l2291 0BC4                            l2347 0F8F  
                          l2339 0F90                            l2284 0BBD                            l2620 0D5E  
                          l2612 0D17                            l5100 0D0A                            l2348 0FA5  
                          l2380 00C8                            l2285 0B8F                            l2621 0D53  
                          l2613 0D85                            l2445 0CC9                            l2349 0FBA  
                          l2381 00DF                            l2286 0B83                            l2294 0B6F  
                          l2622 0D62                            l2614 0D2D                            l2390 0E68  
                          l5030 0E43                            l5022 0E14                            l2446 0CF3  
                          l2382 00E4                            l2287 0B94                            l2295 0B49  
                          l2623 0D6C                            l2615 0D20                            l2391 0E69  
                          l2447 0D0A                            l2383 00F9                            l2288 0B95  
                          l2296 0B3D                            l2624 0D85                            l2616 0D34  
                          l2392 0E7B                            l5040 0E57                            l5032 0E44  
                          l5024 0E27                            l5200 0A0E                            l2384 0110  
                          l2376 005A                            l2289 0BAE                            l2297 0B4E  
                          l2617 0D4B                            l2393 0EA0                            l2377 012C  
                          l2298 0B4F                            l2618 0D35                            l2394 0E8C  
                          l5050 0E82                            l5042 0E5E                            l5034 0E4A  
                          l5026 0E30                            l5202 0A1B                            l5210 0ED8  
                          l2378 0073                            l2299 0B60                            l2619 0D52  
                          l2395 0E99                            l2387 0E31                            l2379 00B3  
                          l5060 0EA4                            l2396 0E8D                            l5052 0E8B  
                          l5044 0E67                            l5036 0E51                            l2388 0EB9  
                          l5028 0E31                            l5204 0A1E                            l5220 0EF5  
                          l5212 0EDE                            l5300 00B3                            l2397 0E9F  
                          l2389 0E7C                            l2398 0EB0                            l5062 0EB0  
                          l5054 0E8D                            l5046 0E69                            l5038 0E53  
                          l5150 0015                            l5230 0F13                            l5222 0EFB  
                          l5214 0EE9                            l5206 0EBA                            l5310 00DF  
                          l5302 00B7                            l5064 0EB9                            l5056 0E99  
                          l5048 0E7C                            l5080 087C                            l5160 0033  
                          l5152 001C                            l5240 0F39                            l5232 0F15  
                          l5224 0F06                            l5216 0EF0                            l5208 0ED4  
                          l5320 0109                            l5312 00E4                            l5304 00C8  
                          l5400 0A51                            l5058 0EA0                            l5074 0871  
                          l5090 0CF3                            l5082 0C9D                            l5162 0035  
                          l5170 003B                            l5154 001D                            l5250 0F6A  
                          l5242 0F44                            l5234 0F1B                            l5226 0F0A  
                          l5218 0EF1                            l5322 0110                            l5314 00E8  
                          l5306 00D0                            l5330 0A7A                            l5410 0A62  
                          l5402 0A54                            l5076 0878                            l5092 0CF5  
                          l5084 0CA3                            l5172 003D                            l5164 0036  
                          l5156 0027                            l5148 000B                            l5180 088C  
                          l5260 0FA5                            l5252 0F70                            l5244 0F51  
                          l5236 0F29                            l5228 0F0E                            l5324 012C  
                          l5316 00F9                            l5308 00D8                            l5332 0A81  
                          l5340 0A50                            l5412 0A68                            l5404 0A55  
                          l5420 0D8D                            l5500 054C                            l5078 087B  
                          l4710 0D07                            l5094 0CF7                            l5086 0CC9  
                          l5166 0037                            l5158 002D                            l5174 0899  
                          l5190 09F6                            l5182 09E3                            l5270 0FDF  
                          l5262 0FA9                            l5254 0F7B                            l5238 0F33  
                          l5246 0F59                            l5318 0101                            l5326 09C2  
                          l5334 0A8A                            l5350 0AC1                            l5342 0AA6  
                          l5414 0A6E                            l5406 0A56                            l5430 0DCE  
                          l5422 0D92                            l5510 0595                            l5502 054D  
                          l4720 0BD5                            l4712 0D09                            l5096 0D05  
                          l5088 0CCD                            l5168 0039                            l5176 089A  
                          l5192 09F9                            l5184 09E6                            l5272 0FE3  
                          l5264 0FBA                            l5256 0F88                            l5248 0F60  
                          l5280 0059                            l5328 09E1                            l5336 0AA5  
                          l5360 0AD1                            l5352 0AC7                            l5344 0AAA  
                          l5416 0A74                            l5408 0A5C                            l5440 0DEB  
                          l5432 0DCF                            l5424 0D94                            l5520 0605  
                          l5512 059B                            l5504 0560                            l5600 0302  
                          l4730 0C03                            l4722 0BDA                            l4714 0BC5  
                          l5098 0D07                            l5178 08A3                            l5186 09E8  
                          l5194 0A08                            l5274 0FFF                            l5266 0FCB  
                          l5258 0F94                            l5290 00A0                            l5282 005A  
                          l5338 0A2D                            l5354 0AC9                            l5346 0AB2  
                          l5362 08D1                            l5370 095A                            l5442 0DF1  
                          l5426 0DB0                            l5434 0DD4                            l5418 0D86  
                          l5450 08F9                            l5522 0655                            l5514 05AA  
                          l5530 06BA                            l5506 056B                            l5602 0303  
                          l4740 0C16                            l4732 0C05                            l4724 0BDC  
                          l4716 0BCD                            l4820 091C                            l4900 0AD2  
                          l5188 09E9                            l5196 0A0B                            l5268 0FCF  
                          l5292 00A1                            l5284 006B                            l5276 003F  
                          l5356 0ACA                            l5348 0ABC                            l5364 0947  
                          l5380 0B20                            l5372 0B02                            l5444 0DF8  
                          l5436 0DDB                            l5428 0DC7                            l5540 0786  
                          l5532 06CE                            l5524 065F                            l5516 05AC  
                          l5508 058D                            l5460 033B                            l5452 031B  
                          l5604 0311                            l4750 0C28                            l4742 0C1B  
                          l4734 0C0C                            l4726 0BDE                            l4718 0BD3  
                          l4830 0927                            l4822 091E                            l4902 0ADB  
                          l4910 0B7F                            l5198 0A0D                            l5294 00A2  
                          l5286 0072                            l5278 0052                            l5358 0ACF  
                          l5366 094D                            l5374 0B03                            l5382 0963  
                          l5390 08BD                            l5438 0DE7                            l5446 08E5  
                          l5542 0790                            l5534 06D5                            l5526 06AF  
                          l5518 05FB                            l5470 03DC                            l5462 035A  
                          l5454 0326                            l5550 012D                            l4752 0C2C  
                          l4744 0C20                            l4736 0C10                            l4728 0BFE  
                          l4760 08FA                            l4832 092A                            l4824 0920  
                          l4816 0912                            l4840 0934                            l4904 0ADC  
                          l4920 0BA6                            l4912 0B83                            l5296 00A8  
                          l5288 0073                            l5368 0955                            l5376 0B13  
                          l5384 0967                            l5392 0983                            l5448 08EA  
                          l5544 07E4                            l5536 0728                            l5528 06B9  
                          l5480 0479                            l5472 03FB                            l5464 036B  
                          l5456 032C                            l5560 0159                            l5552 0130  
                          l4754 0C2E                            l4746 0C25                            l4738 0C15  
                          l4770 090E                            l4762 0903                            l4826 0923  
                          l4818 0918                            l4850 0939                            l4842 0935  
                          l4834 092C                            l4930 0BC4                            l4922 0BAC  
                          l4914 0B8A                            l4906 0B77                            l5298 00AE  
                          l5378 0B1A                            l5386 0981                            l5394 0989  
                          l5546 07EE                            l5538 0732                            l5490 0522  
                          l5482 04DE                            l5474 040C                            l5466 0371  
                          l5458 0335                            l5570 019D                            l5562 015E  
                          l5554 013A                            l4748 0C27                            l4756 087E  
                          l4764 0907                            l4828 0926                            l4860 093E  
                          l4852 093A                            l4844 0936                            l4836 0930  
                          l4924 0BAE                            l4916 0B8F                            l4908 0B79  
                          l4940 0B49                            l4932 0B33                            l5388 08AB  
                          l5396 098B                            l5548 07EF                            l5492 052C  
                          l5484 04E4                            l5476 0412                            l5468 03D6  
                          l5580 01D1                            l5572 01A8                            l5564 0163  
                          l5556 013D                            l4758 0886                            l4766 0908  
                          l4870 0943                            l4862 093F                            l4854 093B  
                          l4846 0937                            l4838 0933                            l4926 0BB5  
                          l4918 0B95                            l4942 0B4F                            l4934 0B39  
                          l4950 0B6F                            l5398 09A0                            l5494 0532  
                          l5486 0503                            l5478 0472                            l5590 02D2  
                          l5582 02AC                            l5574 01B1                            l5566 0168  
                          l5558 014A                            l4768 090B                            l4872 0944  
                          l4864 0940                            l4856 093C                            l4848 0938  
                          l4880 0C56                            l4928 0BBD                            l4952 0B76  
                          l4944 0B59                            l4936 0B3D                            l4960 0D1E  
                          l5496 053C                            l5488 051C                            l5592 02E1  
                          l5584 02B4                            l5576 01C1                            l5568 016E  
                          l4866 0941                            l4858 093D                            l4890 0C87  
                          l4882 0C5C                            l4874 0C31                            l4946 0B60  
                          l4938 0B44                            l4970 0D43                            l4962 0D20  
                          l4954 0D0B                            l5498 0542                            l5594 02EE  
                          l5586 02C1                            l5578 01CB                            l4868 0942  
                          l4892 0C8F                            l4884 0C69                            l4876 0C37  
                          l4948 0B67                            l4980 0D80                            l4972 0D53  
                          l4964 0D2D                            l4956 0D0F                            l5596 02FB  
                          l5588 02CE                            l4894 0C95                            l4886 0C70  
                          l4878 0C40                            l4982 0D84                            l4974 0D5E  
                          l4966 0D35                            l4958 0D17                            l5598 02FF  
                          l4888 0C7F                            l4896 0859                            l4976 0D66  
                          l4968 0D39                            l4898 0005                            l4978 0D6E  
                          _P1M0 00BE                            _P1M1 00BF                            STR_1 082B  
                          STR_2 0835                            STR_3 081F                            STR_4 0810  
                          STR_5 083C                            STR_6 083C                            STR_7 083C  
                          _FERR 00C2                            u3000 0D0F                            u3010 0D16  
                          u3011 0D15                            u3100 0D84                            u3030 0D33  
                          u3031 0D32                            u3200 0E3C                            u4000 05FB  
                          u3025 0D25                            u4001 05FA                            u3050 0D51  
                          u3210 0E57                            u4010 0655                            u3051 0D50  
                          u3211 0E56                            u4011 0654                            u3220 0E5E  
                          u3300 0878                            u4020 06AF                            u4100 02CE  
                          u3045 0D44                            u3221 0E5D                            u3205 0E38  
                          u3301 0877                            u4021 06AE                            u4101 02CD  
                          u3070 0D62                            u3310 0CA3                            u4030 06CD  
                          u4110 02EE                            u3071 0D61                            u3311 0CA2  
                          u4031 06CC                            u4111 02ED                            u3080 0D66  
                          u3240 0E7A                            u4040 06D3                            u4120 02FB  
                          u3081 0D65                            u3065 0D56                            u3241 0E79  
                          u3321 0CBB                            u4041 06D2                            u4121 02FA  
                          u3090 0D77                            u3250 0E82                            u3330 0CCD  
                          u3322 0CBC                            u4050 0728                            u3251 0E81  
                          u3235 0E6A                            u3331 0CCC                            u3323 0CC1  
                          u4051 0727                            u4115 02EA                            u3324 0CC2  
                          u3420 001B                            u3500 0EFB                            u4060 0786  
                          u3341 0CE5                            u3421 001A                            u3501 0EFA  
                          u4061 0785                            u2710 0BD3                            u3270 0E9E  
                          u3190 0E27                            u3350 0D05                            u3342 0CE6  
                          u3430 002D                            u3510 0F05                            u4070 07E4  
                          u2711 0BD2                            u3095 0D73                            u3271 0E9D  
                          u3191 0E26                            u3351 0D04                            u3343 0CEB  
                          u3431 002C                            u3511 0F04                            u4071 07E3  
                          u2720 0BFE                            u3280 0EA4                            u3344 0CEC  
                          u3440 0033                            u3600 0F5F                            u3520 0F0E  
                          u4080 019C                            u2721 0BFD                            u3265 0E8F  
                          u3441 0032                            u3601 0F5E                            u3521 0F0D  
                          u4081 019B                            u4137 0152                            u2730 0C0B  
                          u2810 0C37                            u3450 08A9                            u3530 0F13  
                          u4090 02C1                            u2731 0C0A                            u2811 0C36  
                          u3355 0D01                            u3451 08A8                            u3531 0F12  
                          u4091 02C0                            u4147 017F                            u2740 0C14  
                          u2820 0C69                            u3620 0F70                            u3540 0F28  
                          u3460 0ED8                            u3700 0052                            u2741 0C13  
                          u2725 0BFA                            u2821 0C68                            u3621 0F6F  
                          u3541 0F27                            u3701 0051                            u4157 018E  
                          u2750 0C1F                            u2830 0C7F                            u2910 0BA6  
                          u3630 0F78                            u3470 0EDE                            u3710 006B  
                          u2751 0C1E                            u2831 0C7E                            u2911 0BA5  
                          u3631 0F77                            u3615 0F61                            u3471 0EDD  
                          u3711 006A                            u4095 02BD                            u2760 0885  
                          u2840 0ADA                            u3560 0F39                            u3480 0EE8  
                          u3720 0083                            u2761 0884                            u2825 0C65  
                          u2841 0AD9                            u2905 0B96                            u3561 0F38  
                          u3481 0EE7                            u3801 00F1                            u2850 0AF8  
                          u2930 0BBB                            u3650 0F8E                            u3570 0F41  
                          u3490 0EF5                            u3802 00F8                            u3730 0095  
                          u2835 0C7B                            u2931 0BBA                            u2915 0BA2  
                          u3651 0F8D                            u3571 0F40                            u3555 0F2A  
                          u2860 0B00                            u2940 0B39                            u3660 0F94  
                          u3740 00B7                            u3900 0989                            u2861 0AFF  
                          u2925 0BAF                            u2941 0B38                            u3661 0F93  
                          u3645 0F7C                            u3741 00B6                            u3725 007F  
                          u3901 0988                            u2870 0B7F                            u3670 0FA9  
                          u3590 0F57                            u3830 010F                            u3910 0DCD  
                          u2855 0AEB                            u2871 0B7E                            u3671 0FA8  
                          u3591 0F56                            u3831 010E                            u3815 00FA  
                          u3751 00C0                            u3735 0091                            u3911 0DCC  
                          u2856 0AEC                            u2960 0B4D                            u3752 00C7  
                          u3840 0A81                            u3920 0DDA                            u2857 0AF1  
                          u2961 0B4C                            u3681 0FC4                            u3585 0F45  
                          u3825 0102                            u3841 0A80                            u3921 0DD9  
                          u2858 0AF2                            u2890 0B93                            u2970 0B59  
                          u3690 0FCF                            u3682 0FCB                            u3850 0AB9  
                          u3930 0E12                            u2859 0AF7                            u2891 0B92  
                          u2971 0B58                            u2955 0B3E                            u3691 0FCE  
                          u3851 0AB8                            u3931 0E11                            u3780 00DE  
                          u3860 0AC7                            u3940 0472                            _RCIF 0065  
                          u2885 0B84                            u3781 00DD                            u3765 00C9  
                          u3861 0AC6                            u3941 0471                            u2990 0B6D  
                          u3790 00E8                            u3870 094D                            u3950 0560  
                          u2991 0B6C                            u2975 0B55                            u3791 00E7  
                          u3775 00D1                            u3871 094C                            u3935 0E0E  
                          u3951 055F                            u3880 0B20                            u3960 058D  
                          u2985 0B61                            u3881 0B1F                            u3961 058C  
                          u3890 0B30                            u3970 059B                            u3891 0B2F  
                          u3971 059A                            u3980 05A4                            u3981 05A3  
                          u3965 0589                            u3990 05A9                            u3991 05A8  
                          _TRMT 04C1                            _WREN 0C62                            _main 012D  
                  ___ftpack@arg 0070                            _mode 00B3                    ___ftpack@exp 0073  
                          btemp 007E                     ?_PID_UPDATE 0070                    lcd_goto@data 007A  
                          start 0000                    ___ftmul@cntr 0043                    ___ftmul@sign 0044  
                  ___fttol@exp1 002D                    ___fttol@lval 0029                    lcd_num@digit 0054  
              SEND_PACKET@value 0079                           _DC1B0 00BC                           _DC1B1 00BD  
                         ?_main 0070                           _CCP2X 00ED                           _CCP2Y 00EC  
                         _EEADR 010D                 __end_of___ftadd 1000                           _CARRY 0018  
               __end_of___ftneg 087D                           _ANSEL 0188                 __end_of___ftmul 012D  
               __end_of___ftsub 0982                 __end_of___fttol 0EBA                 __end_of___lwdiv 0BC5  
              __end_of_PID_MENU 0800                 __end_of___lwmod 0B77                           _RCREG 001A  
                         _SPBRG 0099                           _PORTB 0006                           _PORTC 0007  
                         _PORTD 0008                           _PORTE 0009                           _TRISA 0085  
                         _TRISB 0086                           _TRISC 0087                           _TRISD 0088  
                         _TRISE 0089                           _TXREG 0019              __size_of_UART_DUMP 0012  
            __size_of_UART_INIT 0018              __size_of_UART_SEND 000E                __end_of_UART_REC 0C30  
               __end_of_lcd_clr 08E5                 __end_of_lcd_num 0E14                 __end_of_lcdinit 0A7A  
                 ___awtoft@sign 007D                           _delay 0AD2       LSA08_GetPosition@linepost 007A  
           __size_of_LSA08_Init 0015                   ___ftpack@sign 0074                           pclath 000A  
                         status 0003                           wtemp0 007E                    ?_SEND_PACKET 0078  
             UART_REC@waitcount 0071                    __end_of_main 031B                          ??_main 00B9  
                 ___fttol@sign1 0028             __size_of_PID_UPDATE 006D                   lcd_num@number 0052  
                        ?_delay 0070                    ?_send_config 0070                          _CCP1M0 00B8  
                        _CCP1M1 00B9                          _CCP1M2 00BA                          _CCP1M3 00BB  
                        _CCP2M0 00E8                          _CCP2M1 00E9                          _CCP2M2 00EA  
                        _CCP2M3 00EB                          _EEDATA 010C                          _CCPR1L 0015  
                        _CCPR2L 001B                          _EECON1 018C                          _EECON2 018D  
              __end_of___awtoft 0AA6                __end_of___ftpack 0D86                          _ANSELH 0189  
              __end_of___lbtoft 09E2                    ?_send_string 0079           __end_of_UART_RESPONSE 003F  
                        _SPBRGH 009A                          _TMR2ON 0092                   main@leftspeed 00BE  
                        _TRISB4 0434                          _TRISB5 0435               __end_of_UART_DUMP 08AB  
             __end_of_UART_INIT 0912               __end_of_UART_SEND 088B               _LSA08_GetPosition 0AA6  
              __end_of_lcd_goto 0963                          ___ftge 0C9D                       ??___ftadd 004B  
                     ??___ftneg 007B              ?_LSA08_GetPosition 0070                       ??___ftmul 003B  
                     ??___ftsub 007E                       ??___fttol 0024                       ??___lwdiv 0074  
                     ??___lwmod 0074                          _m_diff 00AC                          _initIO 0912  
                     ??_lcd_clr 0079                          clrloop 085F                       ??_lcd_num 0055  
                     ??_lcdinit 0079           ___ftmul@f3_as_product 0040             ??_LSA08_GetPosition 0078  
              __end_of_set_pwml 000A                __end_of_set_pwmr 085E                __end_of_pwm_init 0946  
              ??_LSA08_UARTMode 0020                      ___ftadd@f1 0045                      ___ftadd@f2 0048  
                    ___ftge@ff1 0020                      ___ftge@ff2 0023       __end_of_LSA08_GetPosition 0AD2  
                    ___ftneg@f1 0078                      ___awtoft@c 002E                       ?_PID_MENU 0070  
                    ___lbtoft@c 007B                      ___ftmul@f1 0035                      ___ftmul@f2 0038  
                    ___ftsub@f1 0055                      ___ftsub@f2 0052                      ___fttol@f1 0020  
                  ??_LSA08_Init 007E                  __pcstackCOMMON 0070                  SEND_PACKET@add 007C  
                  __pidataBANK0 0003                    __pidataBANK1 0866                       ?_UART_REC 0070  
                 __end_of_delay 0B02               _last_proportional 00AA   motorspeed@uc_left_motor_speed 0072  
                       ??_delay 0074              __end_of_LSA08_Init 08FA                      __pbssBANK1 00A0  
            SEND_PACKET@com_dat 007A              SEND_PACKET@command 0078                    ??_PID_UPDATE 0070  
                    ??_PID_MENU 006C                      __pmaintext 012D            __size_of_SEND_PACKET 0025  
                       ?___ftge 0020                      ??_UART_REC 0070              __size_of_send_char 0025  
                       ?_initIO 0070                       ?___awtoft 002E                       ?___ftpack 0070  
                     ?___lbtoft 002E                      _derivative 00A6                         _T2CKPS0 0090  
                       _T2CKPS1 0091    __size_of_LSA08_ClearJunction 0013              __end_of_PID_UPDATE 0C9D  
                     ?_lcd_goto 0070               main@junctioncount 00BC            __size_of_send_config 0025  
            PID_UPDATE@position 0072  motorspeed@uc_right_motor_speed 0071            __size_of_send_string 0031  
    __size_of_LSA08_GetPosition 002C                       ?_set_pwml 0070                       ?_set_pwmr 0070  
               __size_of___ftge 006E                         ___ftadd 0EBA                         ___ftneg 0871  
                       ___ftmul 003F                         ___ftsub 0963                         ___fttol 0E14  
                     ?_pwm_init 0070                         ___lwdiv 0B77                         ___lwmod 0B33  
               __size_of_initIO 001A                      ??___awtoft 007B                      ??___ftpack 0075  
                    ??___lbtoft 0031                         _lcd_clr 08D1                         _lcd_num 0D86  
                       _lcdinit 0A51           set_pwmr@uc_duty_cycle 0070                  main@rightspeed 00C0  
                     _LSA08_ADD 006F          UART_RESPONSE@rec_bytes 0077                         main@pos 00BD  
                    ??_lcd_goto 0079            end_of_initialization 09BD               __end_of_send_char 0A07  
       PID_UPDATE@proportional0 00A0         PID_UPDATE@proportional1 00A2         PID_UPDATE@proportional2 00A4  
                       init_ram 08C2              LSA08_UARTMode@mode 007D                      ??_set_pwml 0070  
                    ??_set_pwmr 0070                       _RCSTAbits 0018                      ??_pwm_init 0070  
                     _UART_DUMP 0899                       _UART_INIT 08FA                       _UART_SEND 087D  
                 send_char@data 0078                      _motorspeed 088B                       _PORTCbits 0007  
                  PID_MENU@kval 00B8                       _TRISCbits 0087                      lcd_num@num 0059  
                     _TXSTAbits 0098           LSA08_GetPosition@post 0079                     ___ftmul@exp 003F  
             __size_of_PID_MENU 04E5                  __end_of___ftge 0D0B                      ?_UART_DUMP 0070  
                    ?_UART_INIT 0070                      ?_UART_SEND 0070                UART_REC@rec_data 0075  
             __size_of_UART_REC 006B                     _BAUDCTLbits 0187                   UART_DUMP@dump 0077  
                __end_of_initIO 092C          __size_of_UART_RESPONSE 0035             start_initialization 09A1  
                 UART_SEND@data 0070             _LSA08_ClearJunction 08AB                        ??___ftge 0026  
                   __pdataBANK0 006F                     __pdataBANK1 00C2                        ??_initIO 0070  
                   ?_motorspeed 0071            ?_LSA08_ClearJunction 0070               __size_of___awtoft 002C  
             __size_of___ftpack 007B               __size_of___lbtoft 0021                   __pcstackBANK0 0020  
                 __pcstackBANK1 00B4               __size_of_lcd_goto 001D                   _UART_RESPONSE 000A  
                 ??_SEND_PACKET 007B                ___lwdiv@dividend 0072         __size_of_LSA08_UARTMode 001F  
                      ?___ftadd 0045                       __ptext800 08AB                       __ptext801 0963  
                     __ptext810 0EBA                       __ptext802 0B02                       __ptext811 0A07  
                     __ptext803 0946                       __ptext820 0B33                       __ptext812 09E2  
                     __ptext804 08D1                       __ptext821 0B77                       __ptext813 088B  
                     __ptext805 0AA6                       __ptext830 0BC5                       __ptext822 0AD2  
                     __ptext814 0899                       __ptext806 0A2C                       __ptext831 0000  
                     __ptext823 0004                       __ptext815 000A                       __ptext807 0A7A  
                     __ptext824 0858                       __ptext816 0C9D                       __ptext808 09C1  
                     __ptext825 0C30                       __ptext817 0871                       __ptext809 003F  
                     __ptext826 092C                       __ptext818 0E14                       __ptext827 0912  
                     __ptext819 0D0B                       __ptext828 08FA                       __ptext829 087D  
                     __ptext795 031B                       __ptext796 08E5                       __ptext797 0D86  
                     __ptext798 0A51                       __ptext799 0982                        ?___ftneg 0078  
                      ?___ftmul 0035                        ?___ftsub 0052                        ?___fttol 0020  
                      ?___lwdiv 0070                        ?___lwmod 0070                     ??_UART_DUMP 0076  
                   ??_UART_INIT 0070                     ??_UART_SEND 0070               __size_of_set_pwml 0006  
             __size_of_set_pwmr 0006                       __pstrings 0800               __size_of_pwm_init 001A  
         ??_LSA08_ClearJunction 0020                        ?_lcd_clr 0070                        ?_lcd_num 0052  
                      ?_lcdinit 0070                   ??_send_config 0078                ___lwdiv@quotient 0075  
                __size_of_delay 0030                       delay@data 0070                   ??_send_string 007B  
                ?_UART_RESPONSE 0070             __size_of_motorspeed 000E                        _ERR_FLAG 00B2  
                     _send_char 09E2                        _PID_MENU 031B                        _UART_REC 0BC5  
           __end_of_SEND_PACKET 0A51                     __stringbase 080F             __end_of_send_config 0A2C  
                    ?_send_char 0070                    send_string@s 0079             __end_of_send_string 0B33  
         set_pwml@uc_duty_cycle 0070                       init_fetch 08BE                __size_of___ftadd 0146  
              __size_of___ftneg 000C                __size_of___ftmul 00EE                __size_of___ftsub 001F  
              __size_of___fttol 00A6                __size_of___lwdiv 004E                __size_of___lwmod 0044  
                      ___awtoft 0A7A                        ___ftpack 0D0B                        ___lbtoft 09C1  
              __size_of_lcd_clr 0014                __size_of_lcd_num 008E                __size_of_lcdinit 0029  
               ___lwdiv@divisor 0070                 ___lwdiv@counter 0077                        _lcd_goto 0946  
               ??_UART_RESPONSE 0076                   __size_of_main 01EE                        _integral 00A8  
                   _SEND_PACKET 0A2C                        clear_ram 085E                        _set_pwml 0004  
                      _set_pwmr 0858                  _LSA08_UARTMode 0982                      _LSA08_Init 08E5  
                      _pwm_init 092C                        lcd_num@i 006B                        lcd_num@j 0069  
                      lcd_num@k 006A                    ??_motorspeed 0072                     _send_config 0A07  
                   _send_string 0B02                ___lwmod@dividend 0072              __end_of_motorspeed 0899  
                    _PID_UPDATE 0C30                     ??_send_char 0078          __end_of_LSA08_UARTMode 09A1  
                     stringcode 080A                 ___lwmod@divisor 0070                 ___lwmod@counter 0075  
                      stringdir 080A                        stringtab 0800                   PID_MENU@count 00B4  
               ?_LSA08_UARTMode 0070  
